Component: Arm Compiler for Embedded 6.18 Tool: armlink [5e4cc100]

==============================================================================

Section Cross References

    task2.o(.ARM.exidx.text.mpu_disable) refers to task2.o(.text.mpu_disable) for [Anonymous Symbol]
    task2.o(.ARM.exidx.text.mpu_enable) refers to task2.o(.text.mpu_enable) for [Anonymous Symbol]
    task2.o(.ARM.exidx.text.mpu_region_config) refers to task2.o(.text.mpu_region_config) for [Anonymous Symbol]
    task2.o(.ARM.exidx.text.mpu_region_disable) refers to task2.o(.text.mpu_region_disable) for [Anonymous Symbol]
    task2.o(.text.vTaskStart) refers to task2.o(.text.ARM_MPU_Disable) for ARM_MPU_Disable
    task2.o(.text.vTaskStart) refers to task2.o(.rodata.str1.1) for .L.str
    task2.o(.text.vTaskStart) refers to printf.o(.text) for printf
    task2.o(.text.vTaskStart) refers to task2a.o(.text) for AttackTest
    task2.o(.ARM.exidx.text.vTaskStart) refers to task2.o(.text.vTaskStart) for [Anonymous Symbol]
    task2.o(.ARM.exidx.text.ARM_MPU_Disable) refers to task2.o(.text.ARM_MPU_Disable) for [Anonymous Symbol]
    task2.o(.text.main) refers to task2a.o(.text) for prvSetupHardware
    task2.o(.text.main) refers to task2.o(.text.vTaskStart) for vTaskStart
    task2.o(.text.main) refers to task2.o(.rodata.str1.1) for .L.str.1
    task2.o(.text.main) refers to tasks.o(privileged_functions) for xTaskCreate
    task2.o(.ARM.exidx.text.main) refers to task2.o(.text.main) for [Anonymous Symbol]
    usart_v2m-mps2.o(.text.UART0RX_Handler) refers to usart_v2m-mps2.o(.rodata.USART0_Resources) for USART0_Resources
    usart_v2m-mps2.o(.text.UART0RX_Handler) refers to usart_v2m-mps2.o(.text.USARTRX_IRQHandler) for USARTRX_IRQHandler
    usart_v2m-mps2.o(.ARM.exidx.text.UART0RX_Handler) refers to usart_v2m-mps2.o(.text.UART0RX_Handler) for [Anonymous Symbol]
    usart_v2m-mps2.o(.ARM.exidx.text.USARTRX_IRQHandler) refers to usart_v2m-mps2.o(.text.USARTRX_IRQHandler) for [Anonymous Symbol]
    usart_v2m-mps2.o(.text.UART0TX_Handler) refers to usart_v2m-mps2.o(.rodata.USART0_Resources) for USART0_Resources
    usart_v2m-mps2.o(.text.UART0TX_Handler) refers to usart_v2m-mps2.o(.text.USARTTX_IRQHandler) for USARTTX_IRQHandler
    usart_v2m-mps2.o(.ARM.exidx.text.UART0TX_Handler) refers to usart_v2m-mps2.o(.text.UART0TX_Handler) for [Anonymous Symbol]
    usart_v2m-mps2.o(.ARM.exidx.text.USARTTX_IRQHandler) refers to usart_v2m-mps2.o(.text.USARTTX_IRQHandler) for [Anonymous Symbol]
    usart_v2m-mps2.o(.text.USARTx_GetVersion) refers to usart_v2m-mps2.o(.rodata.usart_driver_version) for usart_driver_version
    usart_v2m-mps2.o(.ARM.exidx.text.USARTx_GetVersion) refers to usart_v2m-mps2.o(.text.USARTx_GetVersion) for [Anonymous Symbol]
    usart_v2m-mps2.o(.text.USART0_GetCapabilities) refers to usart_v2m-mps2.o(.rodata.USART0_Resources) for USART0_Resources
    usart_v2m-mps2.o(.text.USART0_GetCapabilities) refers to usart_v2m-mps2.o(.text.USART_GetCapabilities) for USART_GetCapabilities
    usart_v2m-mps2.o(.ARM.exidx.text.USART0_GetCapabilities) refers to usart_v2m-mps2.o(.text.USART0_GetCapabilities) for [Anonymous Symbol]
    usart_v2m-mps2.o(.text.USART0_Initialize) refers to usart_v2m-mps2.o(.rodata.USART0_Resources) for USART0_Resources
    usart_v2m-mps2.o(.text.USART0_Initialize) refers to usart_v2m-mps2.o(.text.USART_Initialize) for USART_Initialize
    usart_v2m-mps2.o(.ARM.exidx.text.USART0_Initialize) refers to usart_v2m-mps2.o(.text.USART0_Initialize) for [Anonymous Symbol]
    usart_v2m-mps2.o(.text.USART0_Uninitialize) refers to usart_v2m-mps2.o(.rodata.USART0_Resources) for USART0_Resources
    usart_v2m-mps2.o(.text.USART0_Uninitialize) refers to usart_v2m-mps2.o(.text.USART_Uninitialize) for USART_Uninitialize
    usart_v2m-mps2.o(.ARM.exidx.text.USART0_Uninitialize) refers to usart_v2m-mps2.o(.text.USART0_Uninitialize) for [Anonymous Symbol]
    usart_v2m-mps2.o(.text.USART0_PowerControl) refers to usart_v2m-mps2.o(.rodata.USART0_Resources) for USART0_Resources
    usart_v2m-mps2.o(.text.USART0_PowerControl) refers to usart_v2m-mps2.o(.text.USART_PowerControl) for USART_PowerControl
    usart_v2m-mps2.o(.ARM.exidx.text.USART0_PowerControl) refers to usart_v2m-mps2.o(.text.USART0_PowerControl) for [Anonymous Symbol]
    usart_v2m-mps2.o(.text.USART0_Send) refers to usart_v2m-mps2.o(.rodata.USART0_Resources) for USART0_Resources
    usart_v2m-mps2.o(.text.USART0_Send) refers to usart_v2m-mps2.o(.text.USART_Send) for USART_Send
    usart_v2m-mps2.o(.ARM.exidx.text.USART0_Send) refers to usart_v2m-mps2.o(.text.USART0_Send) for [Anonymous Symbol]
    usart_v2m-mps2.o(.text.USART0_Receive) refers to usart_v2m-mps2.o(.rodata.USART0_Resources) for USART0_Resources
    usart_v2m-mps2.o(.text.USART0_Receive) refers to usart_v2m-mps2.o(.text.USART_Receive) for USART_Receive
    usart_v2m-mps2.o(.ARM.exidx.text.USART0_Receive) refers to usart_v2m-mps2.o(.text.USART0_Receive) for [Anonymous Symbol]
    usart_v2m-mps2.o(.text.USART0_Transfer) refers to usart_v2m-mps2.o(.rodata.USART0_Resources) for USART0_Resources
    usart_v2m-mps2.o(.text.USART0_Transfer) refers to usart_v2m-mps2.o(.text.USART_Transfer) for USART_Transfer
    usart_v2m-mps2.o(.ARM.exidx.text.USART0_Transfer) refers to usart_v2m-mps2.o(.text.USART0_Transfer) for [Anonymous Symbol]
    usart_v2m-mps2.o(.text.USART0_GetTxCount) refers to usart_v2m-mps2.o(.rodata.USART0_Resources) for USART0_Resources
    usart_v2m-mps2.o(.text.USART0_GetTxCount) refers to usart_v2m-mps2.o(.text.USART_GetTxCount) for USART_GetTxCount
    usart_v2m-mps2.o(.ARM.exidx.text.USART0_GetTxCount) refers to usart_v2m-mps2.o(.text.USART0_GetTxCount) for [Anonymous Symbol]
    usart_v2m-mps2.o(.text.USART0_GetRxCount) refers to usart_v2m-mps2.o(.rodata.USART0_Resources) for USART0_Resources
    usart_v2m-mps2.o(.text.USART0_GetRxCount) refers to usart_v2m-mps2.o(.text.USART_GetRxCount) for USART_GetRxCount
    usart_v2m-mps2.o(.ARM.exidx.text.USART0_GetRxCount) refers to usart_v2m-mps2.o(.text.USART0_GetRxCount) for [Anonymous Symbol]
    usart_v2m-mps2.o(.text.USART0_Control) refers to usart_v2m-mps2.o(.rodata.USART0_Resources) for USART0_Resources
    usart_v2m-mps2.o(.text.USART0_Control) refers to usart_v2m-mps2.o(.text.USART_Control) for USART_Control
    usart_v2m-mps2.o(.ARM.exidx.text.USART0_Control) refers to usart_v2m-mps2.o(.text.USART0_Control) for [Anonymous Symbol]
    usart_v2m-mps2.o(.text.USART0_GetStatus) refers to usart_v2m-mps2.o(.rodata.USART0_Resources) for USART0_Resources
    usart_v2m-mps2.o(.text.USART0_GetStatus) refers to usart_v2m-mps2.o(.text.USART_GetStatus) for USART_GetStatus
    usart_v2m-mps2.o(.ARM.exidx.text.USART0_GetStatus) refers to usart_v2m-mps2.o(.text.USART0_GetStatus) for [Anonymous Symbol]
    usart_v2m-mps2.o(.text.USART0_SetModemControl) refers to usart_v2m-mps2.o(.rodata.USART0_Resources) for USART0_Resources
    usart_v2m-mps2.o(.text.USART0_SetModemControl) refers to usart_v2m-mps2.o(.text.USART_SetModemControl) for USART_SetModemControl
    usart_v2m-mps2.o(.ARM.exidx.text.USART0_SetModemControl) refers to usart_v2m-mps2.o(.text.USART0_SetModemControl) for [Anonymous Symbol]
    usart_v2m-mps2.o(.text.USART0_GetModemStatus) refers to usart_v2m-mps2.o(.rodata.USART0_Resources) for USART0_Resources
    usart_v2m-mps2.o(.text.USART0_GetModemStatus) refers to usart_v2m-mps2.o(.text.USART_GetModemStatus) for USART_GetModemStatus
    usart_v2m-mps2.o(.ARM.exidx.text.USART0_GetModemStatus) refers to usart_v2m-mps2.o(.text.USART0_GetModemStatus) for [Anonymous Symbol]
    usart_v2m-mps2.o(.ARM.exidx.text.USART_GetCapabilities) refers to usart_v2m-mps2.o(.text.USART_GetCapabilities) for [Anonymous Symbol]
    usart_v2m-mps2.o(.ARM.exidx.text.USART_Initialize) refers to usart_v2m-mps2.o(.text.USART_Initialize) for [Anonymous Symbol]
    usart_v2m-mps2.o(.ARM.exidx.text.USART_Uninitialize) refers to usart_v2m-mps2.o(.text.USART_Uninitialize) for [Anonymous Symbol]
    usart_v2m-mps2.o(.text.USART_PowerControl) refers to usart_v2m-mps2.o(.text.__NVIC_DisableIRQ) for __NVIC_DisableIRQ
    usart_v2m-mps2.o(.text.USART_PowerControl) refers to usart_v2m-mps2.o(.text.__NVIC_ClearPendingIRQ) for __NVIC_ClearPendingIRQ
    usart_v2m-mps2.o(.text.USART_PowerControl) refers to usart_v2m-mps2.o(.text.__NVIC_EnableIRQ) for __NVIC_EnableIRQ
    usart_v2m-mps2.o(.ARM.exidx.text.USART_PowerControl) refers to usart_v2m-mps2.o(.text.USART_PowerControl) for [Anonymous Symbol]
    usart_v2m-mps2.o(.ARM.exidx.text.__NVIC_DisableIRQ) refers to usart_v2m-mps2.o(.text.__NVIC_DisableIRQ) for [Anonymous Symbol]
    usart_v2m-mps2.o(.ARM.exidx.text.__NVIC_ClearPendingIRQ) refers to usart_v2m-mps2.o(.text.__NVIC_ClearPendingIRQ) for [Anonymous Symbol]
    usart_v2m-mps2.o(.ARM.exidx.text.__NVIC_EnableIRQ) refers to usart_v2m-mps2.o(.text.__NVIC_EnableIRQ) for [Anonymous Symbol]
    usart_v2m-mps2.o(.ARM.exidx.text.USART_Send) refers to usart_v2m-mps2.o(.text.USART_Send) for [Anonymous Symbol]
    usart_v2m-mps2.o(.ARM.exidx.text.USART_Receive) refers to usart_v2m-mps2.o(.text.USART_Receive) for [Anonymous Symbol]
    usart_v2m-mps2.o(.ARM.exidx.text.USART_Transfer) refers to usart_v2m-mps2.o(.text.USART_Transfer) for [Anonymous Symbol]
    usart_v2m-mps2.o(.ARM.exidx.text.USART_GetTxCount) refers to usart_v2m-mps2.o(.text.USART_GetTxCount) for [Anonymous Symbol]
    usart_v2m-mps2.o(.ARM.exidx.text.USART_GetRxCount) refers to usart_v2m-mps2.o(.text.USART_GetRxCount) for [Anonymous Symbol]
    usart_v2m-mps2.o(.text.USART_Control) refers to system_cmsdk_cm4.o(.data.SystemCoreClock) for SystemCoreClock
    usart_v2m-mps2.o(.ARM.exidx.text.USART_Control) refers to usart_v2m-mps2.o(.text.USART_Control) for [Anonymous Symbol]
    usart_v2m-mps2.o(.ARM.exidx.text.USART_GetStatus) refers to usart_v2m-mps2.o(.text.USART_GetStatus) for [Anonymous Symbol]
    usart_v2m-mps2.o(.ARM.exidx.text.USART_SetModemControl) refers to usart_v2m-mps2.o(.text.USART_SetModemControl) for [Anonymous Symbol]
    usart_v2m-mps2.o(.ARM.exidx.text.USART_GetModemStatus) refers to usart_v2m-mps2.o(.text.USART_GetModemStatus) for [Anonymous Symbol]
    usart_v2m-mps2.o(.rodata.Driver_USART0) refers to usart_v2m-mps2.o(.text.USARTx_GetVersion) for USARTx_GetVersion
    usart_v2m-mps2.o(.rodata.Driver_USART0) refers to usart_v2m-mps2.o(.text.USART0_GetCapabilities) for USART0_GetCapabilities
    usart_v2m-mps2.o(.rodata.Driver_USART0) refers to usart_v2m-mps2.o(.text.USART0_Initialize) for USART0_Initialize
    usart_v2m-mps2.o(.rodata.Driver_USART0) refers to usart_v2m-mps2.o(.text.USART0_Uninitialize) for USART0_Uninitialize
    usart_v2m-mps2.o(.rodata.Driver_USART0) refers to usart_v2m-mps2.o(.text.USART0_PowerControl) for USART0_PowerControl
    usart_v2m-mps2.o(.rodata.Driver_USART0) refers to usart_v2m-mps2.o(.text.USART0_Send) for USART0_Send
    usart_v2m-mps2.o(.rodata.Driver_USART0) refers to usart_v2m-mps2.o(.text.USART0_Receive) for USART0_Receive
    usart_v2m-mps2.o(.rodata.Driver_USART0) refers to usart_v2m-mps2.o(.text.USART0_Transfer) for USART0_Transfer
    usart_v2m-mps2.o(.rodata.Driver_USART0) refers to usart_v2m-mps2.o(.text.USART0_GetTxCount) for USART0_GetTxCount
    usart_v2m-mps2.o(.rodata.Driver_USART0) refers to usart_v2m-mps2.o(.text.USART0_GetRxCount) for USART0_GetRxCount
    usart_v2m-mps2.o(.rodata.Driver_USART0) refers to usart_v2m-mps2.o(.text.USART0_Control) for USART0_Control
    usart_v2m-mps2.o(.rodata.Driver_USART0) refers to usart_v2m-mps2.o(.text.USART0_GetStatus) for USART0_GetStatus
    usart_v2m-mps2.o(.rodata.Driver_USART0) refers to usart_v2m-mps2.o(.text.USART0_SetModemControl) for USART0_SetModemControl
    usart_v2m-mps2.o(.rodata.Driver_USART0) refers to usart_v2m-mps2.o(.text.USART0_GetModemStatus) for USART0_GetModemStatus
    usart_v2m-mps2.o(.rodata.USART0_Resources) refers to usart_v2m-mps2.o(.data.USART0_pin_rx) for [Anonymous Symbol]
    usart_v2m-mps2.o(.rodata.USART0_Resources) refers to usart_v2m-mps2.o(.data.USART0_pin_tx) for [Anonymous Symbol]
    usart_v2m-mps2.o(.rodata.USART0_Resources) refers to usart_v2m-mps2.o(.bss.USART0_Info) for [Anonymous Symbol]
    usart_v2m-mps2.o(.rodata.USART0_Resources) refers to usart_v2m-mps2.o(.bss.USART0_TransferInfo) for [Anonymous Symbol]
    retarget_io.o(.text._sys_open) refers to retarget_io.o(.rodata.str1.1) for .L.str
    retarget_io.o(.text._sys_open) refers to strcmpv7em.o(.text) for strcmp
    retarget_io.o(.ARM.exidx.text._sys_open) refers to retarget_io.o(.text._sys_open) for [Anonymous Symbol]
    retarget_io.o(.ARM.exidx.text._sys_close) refers to retarget_io.o(.text._sys_close) for [Anonymous Symbol]
    retarget_io.o(.text._sys_write) refers to stdout_usart.o(.text) for stdout_putchar
    retarget_io.o(.ARM.exidx.text._sys_write) refers to retarget_io.o(.text._sys_write) for [Anonymous Symbol]
    retarget_io.o(.ARM.exidx.text._sys_read) refers to retarget_io.o(.text._sys_read) for [Anonymous Symbol]
    retarget_io.o(.ARM.exidx.text._sys_istty) refers to retarget_io.o(.text._sys_istty) for [Anonymous Symbol]
    retarget_io.o(.ARM.exidx.text._sys_seek) refers to retarget_io.o(.text._sys_seek) for [Anonymous Symbol]
    retarget_io.o(.ARM.exidx.text._sys_flen) refers to retarget_io.o(.text._sys_flen) for [Anonymous Symbol]
    startup_cmsdk_cm4.o(.ARM.exidx.text.Default_Handler) refers to startup_cmsdk_cm4.o(.text.Default_Handler) for [Anonymous Symbol]
    startup_cmsdk_cm4.o(.text.Reset_Handler) refers to system_cmsdk_cm4.o(.text.SystemInit) for SystemInit
    startup_cmsdk_cm4.o(.text.Reset_Handler) refers to __main.o(!!!main) for __main
    startup_cmsdk_cm4.o(.ARM.exidx.text.Reset_Handler) refers to startup_cmsdk_cm4.o(.text.Reset_Handler) for [Anonymous Symbol]
    startup_cmsdk_cm4.o(.ARM.exidx.text.HardFault_Handler) refers to startup_cmsdk_cm4.o(.text.HardFault_Handler) for [Anonymous Symbol]
    startup_cmsdk_cm4.o(RESET) refers to startup_cmsdk_cm4.o(.text.Reset_Handler) for Reset_Handler
    startup_cmsdk_cm4.o(RESET) refers to startup_cmsdk_cm4.o(.text.Default_Handler) for NMI_Handler
    startup_cmsdk_cm4.o(RESET) refers to startup_cmsdk_cm4.o(.text.HardFault_Handler) for HardFault_Handler
    startup_cmsdk_cm4.o(RESET) refers to task2a.o(.text) for MemManage_Handler
    startup_cmsdk_cm4.o(RESET) refers to port.o(privileged_functions) for SVC_Handler
    startup_cmsdk_cm4.o(RESET) refers to port.o(privileged_functions) for SysTick_Handler
    startup_cmsdk_cm4.o(RESET) refers to usart_v2m-mps2.o(.text.UART0RX_Handler) for UART0RX_Handler
    startup_cmsdk_cm4.o(RESET) refers to usart_v2m-mps2.o(.text.UART0TX_Handler) for UART0TX_Handler
    system_cmsdk_cm4.o(.text.SystemCoreClockUpdate) refers to system_cmsdk_cm4.o(.data.SystemCoreClock) for SystemCoreClock
    system_cmsdk_cm4.o(.ARM.exidx.text.SystemCoreClockUpdate) refers to system_cmsdk_cm4.o(.text.SystemCoreClockUpdate) for [Anonymous Symbol]
    system_cmsdk_cm4.o(.text.SystemInit) refers to startup_cmsdk_cm4.o(RESET) for __Vectors
    system_cmsdk_cm4.o(.text.SystemInit) refers to system_cmsdk_cm4.o(.data.SystemCoreClock) for SystemCoreClock
    system_cmsdk_cm4.o(.ARM.exidx.text.SystemInit) refers to system_cmsdk_cm4.o(.text.SystemInit) for [Anonymous Symbol]
    stdout_usart.o(.text) refers to usart_v2m-mps2.o(.rodata.Driver_USART0) for Driver_USART0
    task2a.o(.text) refers to _printf_percent.o(.ARM.Collect$$_printf_percent$$00000000) for _printf_percent
    task2a.o(.text) refers to _printf_u.o(.ARM.Collect$$_printf_percent$$0000000A) for _printf_u
    task2a.o(.text) refers to _printf_dec.o(.text) for _printf_int_dec
    task2a.o(.text) refers to __2printf.o(.text) for __2printf
    task2a.o(.text) refers to stdout_usart.o(.text) for stdout_init
    task2a.o(.text) refers to tasks.o(privileged_functions) for vTaskStartScheduler
    task2a.o(.text) refers to tasks.o(.data) for val
    tasks.o(.text) refers to port.o(.text) for vPortEnterCritical
    tasks.o(.text) refers to list.o(.text) for uxListRemove
    tasks.o(.text) refers to tasks.o(privileged_data) for privileged_data
    tasks.o(privileged_functions) refers to port.o(.text) for vPortEnterCritical
    tasks.o(privileged_functions) refers to list.o(.text) for vListInitialise
    tasks.o(privileged_functions) refers to aeabi_memset.o(.text) for __aeabi_memset
    tasks.o(privileged_functions) refers to port.o(privileged_functions) for vPortStoreTaskMPUSettings
    tasks.o(privileged_functions) refers to heap_4.o(privileged_functions) for pvPortMalloc
    tasks.o(privileged_functions) refers to tasks.o(.text) for prvResetNextTaskUnblockTime
    tasks.o(privileged_functions) refers to tasks.o(privileged_data) for privileged_data
    tasks.o(privileged_functions) refers to tasks.o(.data) for .data
    tasks.o(privileged_functions) refers to timers.o(privileged_functions) for xTimerCreateTimerTask
    tasks.o(privileged_functions) refers to strlen.o(.text) for strlen
    timers.o(privileged_functions) refers to list.o(.text) for vListInsert
    timers.o(privileged_functions) refers to tasks.o(privileged_functions) for xTaskGetSchedulerState
    timers.o(privileged_functions) refers to queue.o(privileged_functions) for xQueueGenericSend
    timers.o(privileged_functions) refers to heap_4.o(privileged_functions) for vPortFree
    timers.o(privileged_functions) refers to port.o(.text) for vPortEnterCritical
    timers.o(privileged_functions) refers to timers.o(privileged_data) for privileged_data
    heap_4.o(.text) refers to heap_4.o(.data) for .data
    heap_4.o(.text) refers to heap_4.o(.bss) for .bss
    heap_4.o(privileged_functions) refers to tasks.o(privileged_functions) for vTaskSuspendAll
    heap_4.o(privileged_functions) refers to heap_4.o(.text) for prvHeapInit
    heap_4.o(privileged_functions) refers to heap_4.o(.data) for .data
    port.o(privileged_functions) refers to port.o(privileged_functions) for prvSVCHandler
    port.o(privileged_functions) refers to tasks.o(privileged_functions) for vTaskSwitchContext
    port.o(privileged_functions) refers to tasks.o(privileged_data) for pxCurrentTCB
    port.o(.text) refers to port.o(.emb_text) for xPortRaisePrivilege
    port.o(.text) refers to port.o(.data) for .data
    port.o(privileged_functions) refers to port.o(privileged_functions) for __asm___6_port_c_39a90d8d__prvRestoreContextOfFirstTask
    port.o(privileged_functions) refers to port.o(.emb_text) for __asm___6_port_c_39a90d8d__vPortEnableVFP
    port.o(privileged_functions) refers to tasks.o(privileged_functions) for xTaskIncrementTick
    port.o(privileged_functions) refers to tasks.o(.data) for val
    port.o(privileged_functions) refers to port.o(.data) for .data
    port.o(privileged_functions) refers to system_cmsdk_cm4.o(.data.SystemCoreClock) for SystemCoreClock
    port.o(privileged_functions) refers to task2a.o(.data) for __SRAM_segment_start__
    port.o(privileged_functions) refers to task2a.o(.data) for __SRAM_segment_end__
    port.o(privileged_functions) refers to task2a.o(.data) for __privileged_data_start__
    port.o(privileged_functions) refers to task2a.o(.data) for __privileged_data_end__
    port.o(privileged_functions) refers to task2a.o(.data) for __FLASH_segment_start__
    port.o(privileged_functions) refers to task2a.o(.data) for __FLASH_segment_end__
    port.o(privileged_functions) refers to task2a.o(.data) for __privileged_functions_end__
    queue.o(privileged_functions) refers to port.o(.text) for vPortEnterCritical
    queue.o(privileged_functions) refers to list.o(.text) for vListInitialise
    queue.o(privileged_functions) refers to tasks.o(privileged_functions) for xTaskRemoveFromEventList
    queue.o(privileged_functions) refers to heap_4.o(privileged_functions) for pvPortMalloc
    queue.o(privileged_functions) refers to rt_memcpy_v6.o(.text) for __aeabi_memcpy
    queue.o(privileged_functions) refers to queue.o(privileged_data) for privileged_data
    printf.o(.text) refers (Special) to _printf_a.o(.ARM.Collect$$_printf_percent$$00000006) for _printf_a
    printf.o(.text) refers (Special) to _printf_c.o(.ARM.Collect$$_printf_percent$$00000013) for _printf_c
    printf.o(.text) refers (Special) to _printf_charcount.o(.text) for _printf_charcount
    printf.o(.text) refers (Special) to _printf_d.o(.ARM.Collect$$_printf_percent$$00000009) for _printf_d
    printf.o(.text) refers (Special) to _printf_e.o(.ARM.Collect$$_printf_percent$$00000004) for _printf_e
    printf.o(.text) refers (Special) to _printf_f.o(.ARM.Collect$$_printf_percent$$00000003) for _printf_f
    printf.o(.text) refers (Special) to printf1.o(x$fpl$printf1) for _printf_fp_dec
    printf.o(.text) refers (Special) to printf2.o(x$fpl$printf2) for _printf_fp_hex
    printf.o(.text) refers (Special) to _printf_g.o(.ARM.Collect$$_printf_percent$$00000005) for _printf_g
    printf.o(.text) refers (Special) to _printf_i.o(.ARM.Collect$$_printf_percent$$00000008) for _printf_i
    printf.o(.text) refers (Special) to _printf_dec.o(.text) for _printf_int_dec
    printf.o(.text) refers (Special) to _printf_l.o(.ARM.Collect$$_printf_percent$$00000012) for _printf_l
    printf.o(.text) refers (Special) to _printf_lc.o(.ARM.Collect$$_printf_percent$$00000015) for _printf_lc
    printf.o(.text) refers (Special) to _printf_ll.o(.ARM.Collect$$_printf_percent$$00000007) for _printf_ll
    printf.o(.text) refers (Special) to _printf_lld.o(.ARM.Collect$$_printf_percent$$0000000E) for _printf_lld
    printf.o(.text) refers (Special) to _printf_lli.o(.ARM.Collect$$_printf_percent$$0000000D) for _printf_lli
    printf.o(.text) refers (Special) to _printf_llo.o(.ARM.Collect$$_printf_percent$$00000010) for _printf_llo
    printf.o(.text) refers (Special) to _printf_llu.o(.ARM.Collect$$_printf_percent$$0000000F) for _printf_llu
    printf.o(.text) refers (Special) to _printf_llx.o(.ARM.Collect$$_printf_percent$$00000011) for _printf_llx
    printf.o(.text) refers (Special) to _printf_longlong_dec.o(.text) for _printf_longlong_dec
    printf.o(.text) refers (Special) to _printf_hex_int_ll_ptr.o(.text) for _printf_longlong_hex
    printf.o(.text) refers (Special) to _printf_oct_int_ll.o(.text) for _printf_longlong_oct
    printf.o(.text) refers (Special) to _printf_ls.o(.ARM.Collect$$_printf_percent$$00000016) for _printf_ls
    printf.o(.text) refers (Special) to _printf_n.o(.ARM.Collect$$_printf_percent$$00000001) for _printf_n
    printf.o(.text) refers (Special) to _printf_o.o(.ARM.Collect$$_printf_percent$$0000000B) for _printf_o
    printf.o(.text) refers (Special) to _printf_p.o(.ARM.Collect$$_printf_percent$$00000002) for _printf_p
    printf.o(.text) refers (Special) to _printf_percent.o(.ARM.Collect$$_printf_percent$$00000000) for _printf_percent
    printf.o(.text) refers (Special) to _printf_pad.o(.text) for _printf_post_padding
    printf.o(.text) refers (Special) to _printf_s.o(.ARM.Collect$$_printf_percent$$00000014) for _printf_s
    printf.o(.text) refers (Special) to _printf_str.o(.text) for _printf_str
    printf.o(.text) refers (Special) to _printf_truncate.o(.text) for _printf_truncate_signed
    printf.o(.text) refers (Special) to _printf_u.o(.ARM.Collect$$_printf_percent$$0000000A) for _printf_u
    printf.o(.text) refers (Special) to _printf_wctomb.o(.text) for _printf_wctomb
    printf.o(.text) refers (Special) to _printf_x.o(.ARM.Collect$$_printf_percent$$0000000C) for _printf_x
    printf.o(.text) refers to _printf_char_file.o(.text) for _printf_char_file
    printf.o(.text) refers to stdio_streams.o(.bss) for __stdout
    __2printf.o(.text) refers to _printf_char_file.o(.text) for _printf_char_file
    __2printf.o(.text) refers to stdio_streams.o(.bss) for __stdout
    noretval__2printf.o(.text) refers to _printf_char_file.o(.text) for _printf_char_file
    noretval__2printf.o(.text) refers to stdio_streams.o(.bss) for __stdout
    __printf.o(.text) refers to _printf_percent.o(.ARM.Collect$$_printf_percent$$00000000) for _printf_percent
    _printf_dec.o(.text) refers (Weak) to _printf_truncate.o(.text) for _printf_truncate_signed
    _printf_dec.o(.text) refers (Weak) to _printf_truncate.o(.text) for _printf_truncate_unsigned
    _printf_dec.o(.text) refers to _printf_intcommon.o(.text) for _printf_int_common
    __printf_flags.o(.text) refers to _printf_percent.o(.ARM.Collect$$_printf_percent$$00000000) for _printf_percent
    __printf_flags.o(.text) refers to __printf_flags.o(.constdata) for .constdata
    __printf_ss.o(.text) refers to _printf_percent.o(.ARM.Collect$$_printf_percent$$00000000) for _printf_percent
    __printf_flags_ss.o(.text) refers to _printf_percent.o(.ARM.Collect$$_printf_percent$$00000000) for _printf_percent
    __printf_flags_ss.o(.text) refers to __printf_flags_ss.o(.constdata) for .constdata
    __printf_wp.o(.text) refers to __printf_wp.o(i._is_digit) for _is_digit
    __printf_wp.o(.text) refers to _printf_percent.o(.ARM.Collect$$_printf_percent$$00000000) for _printf_percent
    __printf_flags_wp.o(.text) refers to __printf_wp.o(i._is_digit) for _is_digit
    __printf_flags_wp.o(.text) refers to _printf_percent.o(.ARM.Collect$$_printf_percent$$00000000) for _printf_percent
    __printf_flags_wp.o(.text) refers to __printf_flags_wp.o(.constdata) for .constdata
    __printf_ss_wp.o(.text) refers to __printf_wp.o(i._is_digit) for _is_digit
    __printf_ss_wp.o(.text) refers to _printf_percent.o(.ARM.Collect$$_printf_percent$$00000000) for _printf_percent
    __printf_flags_ss_wp.o(.text) refers to __printf_wp.o(i._is_digit) for _is_digit
    __printf_flags_ss_wp.o(.text) refers to _printf_percent.o(.ARM.Collect$$_printf_percent$$00000000) for _printf_percent
    __printf_flags_ss_wp.o(.text) refers to __printf_flags_ss_wp.o(.constdata) for .constdata
    _printf_u.o(.ARM.Collect$$_printf_percent$$0000000A) refers (Weak) to _printf_dec.o(.text) for _printf_int_dec
    _printf_percent.o(.ARM.Collect$$_printf_percent$$00000000) refers (Special) to _printf_percent_end.o(.ARM.Collect$$_printf_percent$$00000017) for _printf_percent_end
    rt_memcpy_v6.o(.text) refers to rt_memcpy_w.o(.text) for __aeabi_memcpy4
    aeabi_memset.o(.text) refers to rt_memclr.o(.text) for _memset
    __main.o(!!!main) refers to __rtentry.o(.ARM.Collect$$rtentry$$00000000) for __rt_entry
    __rtentry.o(.ARM.Collect$$rtentry$$00000000) refers (Special) to __rtentry2.o(.ARM.Collect$$rtentry$$0000000A) for __rt_entry_li
    __rtentry.o(.ARM.Collect$$rtentry$$00000000) refers (Special) to __rtentry2.o(.ARM.Collect$$rtentry$$0000000D) for __rt_entry_main
    __rtentry.o(.ARM.Collect$$rtentry$$00000000) refers (Special) to __rtentry2.o(.ARM.Collect$$rtentry$$0000000C) for __rt_entry_postli_1
    __rtentry.o(.ARM.Collect$$rtentry$$00000000) refers (Special) to __rtentry2.o(.ARM.Collect$$rtentry$$00000009) for __rt_entry_postsh_1
    __rtentry.o(.ARM.Collect$$rtentry$$00000000) refers (Special) to __rtentry2.o(.ARM.Collect$$rtentry$$00000002) for __rt_entry_presh_1
    __rtentry.o(.ARM.Collect$$rtentry$$00000000) refers (Special) to __rtentry7.o(.ARM.Collect$$rtentry$$00000007) for __rt_entry_sh
    _printf_str.o(.text) refers (Special) to _printf_char.o(.text) for _printf_cs_common
    _printf_str.o(.text) refers (Weak) to _printf_pad.o(.text) for _printf_pre_padding
    _printf_str.o(.text) refers (Weak) to _printf_pad.o(.text) for _printf_post_padding
    _printf_intcommon.o(.text) refers (Weak) to _printf_pad.o(.text) for _printf_pre_padding
    _printf_intcommon.o(.text) refers (Weak) to _printf_pad.o(.text) for _printf_pre_padding
    _printf_intcommon.o(.text) refers (Weak) to _printf_pad.o(.text) for _printf_post_padding
    _printf_char_file.o(.text) refers to _printf_char_common.o(.text) for _printf_char_common
    _printf_char_file.o(.text) refers to ferror.o(.text) for ferror
    _printf_char_file.o(.text) refers to fputc.o(i.fputc) for fputc
    _printf_wctomb.o(.text) refers (Special) to _printf_wchar.o(.text) for _printf_lcs_common
    _printf_wctomb.o(.text) refers to _c16rtomb.o(.text) for _wcrtomb
    _printf_wctomb.o(.text) refers (Weak) to _printf_pad.o(.text) for _printf_pre_padding
    _printf_wctomb.o(.text) refers (Weak) to _printf_pad.o(.text) for _printf_post_padding
    _printf_wctomb.o(.text) refers to _printf_wctomb.o(.constdata) for .constdata
    _printf_wctomb.o(.constdata) refers (Special) to _printf_wchar.o(.text) for _printf_lcs_common
    _printf_longlong_dec.o(.text) refers to lludiv10.o(.text) for _ll_udiv10
    _printf_longlong_dec.o(.text) refers to _printf_intcommon.o(.text) for _printf_int_common
    _printf_oct_ll.o(.text) refers to _printf_intcommon.o(.text) for _printf_int_common
    _printf_oct_int.o(.text) refers (Weak) to _printf_truncate.o(.text) for _printf_truncate_unsigned
    _printf_oct_int.o(.text) refers to _printf_intcommon.o(.text) for _printf_int_common
    _printf_oct_int_ll.o(.text) refers to _printf_intcommon.o(.text) for _printf_int_common
    _printf_oct_int_ll.o(.text) refers (Weak) to _printf_truncate.o(.text) for _printf_truncate_unsigned
    _printf_hex_ll.o(.text) refers to _printf_intcommon.o(.text) for _printf_int_common
    _printf_hex_ll.o(.text) refers to _printf_hex_ll.o(.constdata) for .constdata
    _printf_hex_int.o(.text) refers (Weak) to _printf_truncate.o(.text) for _printf_truncate_unsigned
    _printf_hex_int.o(.text) refers to _printf_intcommon.o(.text) for _printf_int_common
    _printf_hex_int.o(.text) refers to _printf_hex_int.o(.constdata) for .constdata
    _printf_hex_int_ll.o(.text) refers to _printf_intcommon.o(.text) for _printf_int_common
    _printf_hex_int_ll.o(.text) refers (Weak) to _printf_truncate.o(.text) for _printf_truncate_unsigned
    _printf_hex_int_ll.o(.text) refers to _printf_hex_int_ll.o(.constdata) for .constdata
    _printf_hex_ptr.o(.text) refers to _printf_intcommon.o(.text) for _printf_int_common
    _printf_hex_ptr.o(.text) refers to _printf_hex_ptr.o(.constdata) for .constdata
    _printf_hex_int_ptr.o(.text) refers to _printf_intcommon.o(.text) for _printf_int_common
    _printf_hex_int_ptr.o(.text) refers (Weak) to _printf_truncate.o(.text) for _printf_truncate_unsigned
    _printf_hex_int_ptr.o(.text) refers to _printf_hex_int_ptr.o(.constdata) for .constdata
    _printf_hex_ll_ptr.o(.text) refers to _printf_intcommon.o(.text) for _printf_int_common
    _printf_hex_ll_ptr.o(.text) refers to _printf_hex_ll_ptr.o(.constdata) for .constdata
    _printf_hex_int_ll_ptr.o(.text) refers to _printf_intcommon.o(.text) for _printf_int_common
    _printf_hex_int_ll_ptr.o(.text) refers (Weak) to _printf_truncate.o(.text) for _printf_truncate_unsigned
    _printf_hex_int_ll_ptr.o(.text) refers to _printf_hex_int_ll_ptr.o(.constdata) for .constdata
    _printf_c.o(.ARM.Collect$$_printf_percent$$00000013) refers (Weak) to _printf_char.o(.text) for _printf_char
    _printf_s.o(.ARM.Collect$$_printf_percent$$00000014) refers (Weak) to _printf_char.o(.text) for _printf_string
    _printf_n.o(.ARM.Collect$$_printf_percent$$00000001) refers (Weak) to _printf_charcount.o(.text) for _printf_charcount
    _printf_x.o(.ARM.Collect$$_printf_percent$$0000000C) refers (Weak) to _printf_hex_int_ll_ptr.o(.text) for _printf_int_hex
    _printf_p.o(.ARM.Collect$$_printf_percent$$00000002) refers (Weak) to _printf_hex_int_ll_ptr.o(.text) for _printf_hex_ptr
    _printf_o.o(.ARM.Collect$$_printf_percent$$0000000B) refers (Weak) to _printf_oct_int_ll.o(.text) for _printf_int_oct
    _printf_i.o(.ARM.Collect$$_printf_percent$$00000008) refers (Weak) to _printf_dec.o(.text) for _printf_int_dec
    _printf_d.o(.ARM.Collect$$_printf_percent$$00000009) refers (Weak) to _printf_dec.o(.text) for _printf_int_dec
    _printf_f.o(.ARM.Collect$$_printf_percent$$00000003) refers (Weak) to printf1.o(x$fpl$printf1) for _printf_fp_dec
    _printf_e.o(.ARM.Collect$$_printf_percent$$00000004) refers (Weak) to printf1.o(x$fpl$printf1) for _printf_fp_dec
    _printf_g.o(.ARM.Collect$$_printf_percent$$00000005) refers (Weak) to printf1.o(x$fpl$printf1) for _printf_fp_dec
    _printf_a.o(.ARM.Collect$$_printf_percent$$00000006) refers (Weak) to printf2.o(x$fpl$printf2) for _printf_fp_hex
    _printf_lli.o(.ARM.Collect$$_printf_percent$$0000000D) refers (Special) to _printf_ll.o(.ARM.Collect$$_printf_percent$$00000007) for _printf_ll
    _printf_lli.o(.ARM.Collect$$_printf_percent$$0000000D) refers (Weak) to _printf_longlong_dec.o(.text) for _printf_longlong_dec
    _printf_lld.o(.ARM.Collect$$_printf_percent$$0000000E) refers (Special) to _printf_ll.o(.ARM.Collect$$_printf_percent$$00000007) for _printf_ll
    _printf_lld.o(.ARM.Collect$$_printf_percent$$0000000E) refers (Weak) to _printf_longlong_dec.o(.text) for _printf_longlong_dec
    _printf_llu.o(.ARM.Collect$$_printf_percent$$0000000F) refers (Special) to _printf_ll.o(.ARM.Collect$$_printf_percent$$00000007) for _printf_ll
    _printf_llu.o(.ARM.Collect$$_printf_percent$$0000000F) refers (Weak) to _printf_longlong_dec.o(.text) for _printf_longlong_dec
    _printf_lc.o(.ARM.Collect$$_printf_percent$$00000015) refers (Special) to _printf_l.o(.ARM.Collect$$_printf_percent$$00000012) for _printf_l
    _printf_lc.o(.ARM.Collect$$_printf_percent$$00000015) refers (Weak) to _printf_wchar.o(.text) for _printf_wchar
    _printf_ls.o(.ARM.Collect$$_printf_percent$$00000016) refers (Special) to _printf_l.o(.ARM.Collect$$_printf_percent$$00000012) for _printf_l
    _printf_ls.o(.ARM.Collect$$_printf_percent$$00000016) refers (Weak) to _printf_wchar.o(.text) for _printf_wstring
    _printf_llo.o(.ARM.Collect$$_printf_percent$$00000010) refers (Special) to _printf_ll.o(.ARM.Collect$$_printf_percent$$00000007) for _printf_ll
    _printf_llo.o(.ARM.Collect$$_printf_percent$$00000010) refers (Weak) to _printf_oct_int_ll.o(.text) for _printf_ll_oct
    _printf_llx.o(.ARM.Collect$$_printf_percent$$00000011) refers (Special) to _printf_ll.o(.ARM.Collect$$_printf_percent$$00000007) for _printf_ll
    _printf_llx.o(.ARM.Collect$$_printf_percent$$00000011) refers (Weak) to _printf_hex_int_ll_ptr.o(.text) for _printf_ll_hex
    stdio_streams.o(.bss) refers (Special) to initio.o(.text) for _initio
    stdio_streams.o(.bss) refers (Special) to initio.o(.text) for _initio
    stdio_streams.o(.bss) refers (Special) to initio.o(.text) for _initio
    stdio_streams.o(.data) refers (Special) to initio.o(.text) for _initio
    stdio_streams.o(.data) refers (Special) to initio.o(.text) for _initio
    stdio_streams.o(.data) refers (Special) to initio.o(.text) for _initio
    rt_memclr.o(.text) refers to rt_memclr_w.o(.text) for _memset_w
    printf1.o(x$fpl$printf1) refers to _printf_fp_dec.o(.text) for _printf_fp_dec_real
    printf2.o(x$fpl$printf2) refers to _printf_fp_hex.o(.text) for _printf_fp_hex_real
    printf2b.o(x$fpl$printf2) refers to _printf_fp_hex.o(.text) for _printf_fp_hex_real
    __rtentry2.o(.ARM.Collect$$rtentry$$00000008) refers to boardinit2.o(.text) for _platform_post_stackheap_init
    __rtentry2.o(.ARM.Collect$$rtentry$$0000000A) refers to libinit.o(.ARM.Collect$$libinit$$00000000) for __rt_lib_init
    __rtentry2.o(.ARM.Collect$$rtentry$$0000000B) refers to boardinit3.o(.text) for _platform_post_lib_init
    __rtentry2.o(.ARM.Collect$$rtentry$$0000000D) refers to task2.o(.text.main) for main
    __rtentry2.o(.ARM.Collect$$rtentry$$0000000D) refers to exit.o(.text) for exit
    __rtentry2.o(.ARM.exidx) refers to __rtentry2.o(.ARM.Collect$$rtentry$$00000001) for .ARM.Collect$$rtentry$$00000001
    __rtentry2.o(.ARM.exidx) refers to __rtentry2.o(.ARM.Collect$$rtentry$$00000008) for .ARM.Collect$$rtentry$$00000008
    __rtentry2.o(.ARM.exidx) refers to __rtentry2.o(.ARM.Collect$$rtentry$$0000000A) for .ARM.Collect$$rtentry$$0000000A
    __rtentry2.o(.ARM.exidx) refers to __rtentry2.o(.ARM.Collect$$rtentry$$0000000B) for .ARM.Collect$$rtentry$$0000000B
    __rtentry2.o(.ARM.exidx) refers to __rtentry2.o(.ARM.Collect$$rtentry$$0000000D) for .ARM.Collect$$rtentry$$0000000D
    __rtentry4.o(.ARM.Collect$$rtentry$$00000004) refers to sys_stackheap_outer.o(.text) for __user_setup_stackheap
    __rtentry4.o(.ARM.exidx) refers to __rtentry4.o(.ARM.Collect$$rtentry$$00000004) for .ARM.Collect$$rtentry$$00000004
    __rtentry7.o(.ARM.Collect$$rtentry$$00000007) refers to __rtentry7.o(.ARM.Collect$$rtentry$$00002718) for __lit__00000000
    __rtentry7.o(__vectab_stack_and_reset_2_area) refers to __main.o(!!!main) for __main
    __rtentry7.o(.ARM.exidx) refers to __rtentry7.o(.ARM.Collect$$rtentry$$00000007) for .ARM.Collect$$rtentry$$00000007
    __rtentry7.o(.ARM.exidx) refers to __rtentry7.o(.ARM.Collect$$rtentry$$00002718) for .ARM.Collect$$rtentry$$00002718
    _printf_fp_dec.o(.text) refers (Special) to usenofp.o(x$fpl$usenofp) for __I$use$fp
    _printf_fp_dec.o(.text) refers (Special) to lc_numeric_c.o(locale$$code) for _get_lc_numeric
    _printf_fp_dec.o(.text) refers to bigflt0.o(.text) for _btod_etento
    _printf_fp_dec.o(.text) refers to btod.o(CL$$btod_d2e) for _btod_d2e
    _printf_fp_dec.o(.text) refers to btod.o(CL$$btod_ediv) for _btod_ediv
    _printf_fp_dec.o(.text) refers to btod.o(CL$$btod_emul) for _btod_emul
    _printf_fp_dec.o(.text) refers to lludiv10.o(.text) for _ll_udiv10
    _printf_fp_dec.o(.text) refers to fpclassify.o(i.__ARM_fpclassify) for __ARM_fpclassify
    _printf_fp_dec.o(.text) refers to _printf_fp_infnan.o(.text) for _printf_fp_infnan
    _printf_fp_dec.o(.text) refers (Weak) to _printf_pad.o(.text) for _printf_pre_padding
    _printf_fp_dec.o(.text) refers (Weak) to _printf_pad.o(.text) for _printf_pre_padding
    _printf_fp_dec.o(.text) refers to rt_locale_intlibspace.o(.text) for __rt_locale
    _printf_fp_dec.o(.text) refers (Weak) to _printf_pad.o(.text) for _printf_post_padding
    _printf_fp_dec_accurate.o(.text) refers (Special) to usenofp.o(x$fpl$usenofp) for __I$use$fp
    _printf_fp_dec_accurate.o(.text) refers (Special) to lc_numeric_c.o(locale$$code) for _get_lc_numeric
    _printf_fp_dec_accurate.o(.text) refers to btod_accurate.o(.text) for _btod_main
    _printf_fp_dec_accurate.o(.text) refers to fpclassify.o(i.__ARM_fpclassify) for __ARM_fpclassify
    _printf_fp_dec_accurate.o(.text) refers to _printf_fp_infnan.o(.text) for _printf_fp_infnan
    _printf_fp_dec_accurate.o(.text) refers (Weak) to _printf_pad.o(.text) for _printf_pre_padding
    _printf_fp_dec_accurate.o(.text) refers (Weak) to _printf_pad.o(.text) for _printf_pre_padding
    _printf_fp_dec_accurate.o(.text) refers to rt_locale_intlibspace.o(.text) for __rt_locale
    _printf_fp_dec_accurate.o(.text) refers (Weak) to _printf_pad.o(.text) for _printf_post_padding
    _printf_fp_hex.o(.text) refers (Special) to usenofp.o(x$fpl$usenofp) for __I$use$fp
    _printf_fp_hex.o(.text) refers to fpclassify.o(i.__ARM_fpclassify) for __ARM_fpclassify
    _printf_fp_hex.o(.text) refers to _printf_fp_infnan.o(.text) for _printf_fp_infnan
    _printf_fp_hex.o(.text) refers (Weak) to _printf_pad.o(.text) for _printf_pre_padding
    _printf_fp_hex.o(.text) refers (Weak) to _printf_pad.o(.text) for _printf_pre_padding
    _printf_fp_hex.o(.text) refers (Weak) to _printf_pad.o(.text) for _printf_post_padding
    _printf_fp_hex.o(.text) refers to _printf_fp_hex.o(.constdata) for .constdata
    _printf_fp_hex.o(.constdata) refers (Special) to usenofp.o(x$fpl$usenofp) for __I$use$fp
    _printf_char_common.o(.text) refers to __printf_flags_ss_wp.o(.text) for __printf
    _printf_char.o(.text) refers (Weak) to _printf_str.o(.text) for _printf_str
    _printf_wchar.o(.text) refers (Weak) to _printf_wctomb.o(.text) for _printf_wctomb
    fputc.o(i.fputc) refers to flsbuf.o(.text) for __flsbuf_byte
    initio.o(.text) refers (Special) to libinit2.o(.ARM.Collect$$libinit$$00000026) for __rt_lib_init_stdio_2
    initio.o(.text) refers (Special) to libshutdown2.o(.ARM.Collect$$libshutdown$$00000003) for __rt_lib_shutdown_stdio_2
    initio.o(.text) refers to rt_memclr_w.o(.text) for __aeabi_memclr4
    initio.o(.text) refers to fopen.o(.text) for freopen
    initio.o(.text) refers to defsig_rtred_outer.o(.text) for __rt_SIGRTRED
    initio.o(.text) refers to setvbuf.o(.text) for setvbuf
    initio.o(.text) refers to fclose.o(.text) for _fclose_internal
    initio.o(.text) refers to h1_free.o(.text) for free
    initio.o(.text) refers to stdio_streams.o(.bss) for __stdin
    initio.o(.text) refers to stdio_streams.o(.bss) for __stdout
    initio.o(.text) refers to stdio_streams.o(.bss) for __stderr
    initio.o(.text) refers to stdio_streams.o(.data) for __aeabi_stdin
    initio.o(.text) refers to stdio_streams.o(.data) for __aeabi_stdout
    initio.o(.text) refers to stdio_streams.o(.data) for __aeabi_stderr
    initio.o(.text) refers to retarget_io.o(.rodata.__stdin_name) for __stdin_name
    initio.o(.text) refers to retarget_io.o(.rodata.__stdout_name) for __stdout_name
    initio.o(.text) refers to retarget_io.o(.rodata.__stderr_name) for __stderr_name
    initio_locked.o(.text) refers (Special) to libinit2.o(.ARM.Collect$$libinit$$00000026) for __rt_lib_init_stdio_2
    initio_locked.o(.text) refers (Special) to libshutdown2.o(.ARM.Collect$$libshutdown$$00000003) for __rt_lib_shutdown_stdio_2
    initio_locked.o(.text) refers to rt_memclr_w.o(.text) for __aeabi_memclr4
    initio_locked.o(.text) refers to fopen.o(.text) for freopen
    initio_locked.o(.text) refers to defsig_rtred_outer.o(.text) for __rt_SIGRTRED
    initio_locked.o(.text) refers to setvbuf.o(.text) for setvbuf
    initio_locked.o(.text) refers to fclose.o(.text) for _fclose_internal
    initio_locked.o(.text) refers to h1_free.o(.text) for free
    initio_locked.o(.text) refers to stdio_streams.o(.bss) for __stdin
    initio_locked.o(.text) refers to stdio_streams.o(.bss) for __stdout
    initio_locked.o(.text) refers to stdio_streams.o(.bss) for __stderr
    initio_locked.o(.text) refers to stdio_streams.o(.data) for __aeabi_stdin
    initio_locked.o(.text) refers to stdio_streams.o(.data) for __aeabi_stdout
    initio_locked.o(.text) refers to stdio_streams.o(.data) for __aeabi_stderr
    initio_locked.o(.text) refers to streamlock.o(.data) for _stream_list_lock
    initio_locked.o(.text) refers to retarget_io.o(.rodata.__stdin_name) for __stdin_name
    initio_locked.o(.text) refers to retarget_io.o(.rodata.__stdout_name) for __stdout_name
    initio_locked.o(.text) refers to retarget_io.o(.rodata.__stderr_name) for __stderr_name
    _c16rtomb.o(.text) refers to rt_ctype_table.o(.text) for __rt_ctype_table
    sys_stackheap_outer.o(.text) refers to libspace.o(.text) for __user_perproc_libspace
    sys_stackheap_outer.o(.text) refers to sys_stackheap.o(.text) for __user_initial_stackheap
    rt_ctype_table.o(.text) refers to rt_locale_intlibspace.o(.text) for __rt_locale
    rt_ctype_table.o(.text) refers to lc_ctype_c.o(locale$$code) for _get_lc_ctype
    rt_locale.o(.text) refers to rt_locale.o(.bss) for __rt_locale_data
    rt_locale_intlibspace.o(.text) refers to libspace.o(.bss) for __libspace_start
    free.o(.text) refers (Special) to hguard.o(.text) for __heap$guard
    free.o(.text) refers to rt_heap_descriptor_intlibspace.o(.text) for __rt_heap_descriptor
    free.o(.text) refers to heapstubs.o(.text) for __Heap_Free
    h1_free.o(.text) refers to rt_heap_descriptor_intlibspace.o(.text) for __rt_heap_descriptor
    h1_free_threads.o(.text) refers to rt_heap_descriptor_intlibspace.o(.text) for __rt_heap_descriptor
    heap2.o(i._FDIterate) refers to heap2.o(.conststring) for .conststring
    heap2.o(i.__Heap_ProvideMemory$realtime) refers to fdtree.o(i._FDTree_Delete) for _FDTree_Delete
    heap2.o(i.__Heap_ProvideMemory$realtime) refers to fdtree.o(i._FDTree_Insert) for _FDTree_Insert
    heap2.o(i.__Heap_Stats$realtime) refers to heap2.o(i._Heap2_StatsIterate) for _Heap2_StatsIterate
    heap2.o(i.__Heap_Valid$realtime) refers to heap2.o(i._FDIterate) for _FDIterate
    heap2.o(i.__Heap_Valid$realtime) refers to heap2.o(.conststring) for .conststring
    heap2.o(i.free$realtime) refers to rt_heap_descriptor_intlibspace.o(.text) for __rt_heap_descriptor
    heap2.o(i.free$realtime) refers to fdtree.o(i._FDTree_Delete) for _FDTree_Delete
    heap2.o(i.free$realtime) refers to fdtree.o(i._FDTree_Insert) for _FDTree_Insert
    heap2.o(i.malloc$realtime) refers to rt_heap_descriptor_intlibspace.o(.text) for __rt_heap_descriptor
    heap2.o(i.malloc$realtime) refers to fdtree.o(i._FDTree_FindFirst) for _FDTree_FindFirst
    heap2.o(i.malloc$realtime) refers to init_alloc.o(.text) for __Heap_Full
    heap2.o(i.malloc$realtime) refers to fdtree.o(i._FDTree_RemoveNode) for _FDTree_RemoveNode
    heap2.o(i.malloc$realtime) refers to fdtree.o(i._FDTree_Insert) for _FDTree_Insert
    heap2.o(i.posix_memalign$realtime) refers to rt_heap_descriptor_intlibspace.o(.text) for __rt_heap_descriptor
    heap2.o(i.posix_memalign$realtime) refers to fdtree.o(i._FDTree_FindFirst) for _FDTree_FindFirst
    heap2.o(i.posix_memalign$realtime) refers to init_alloc.o(.text) for __Heap_Full
    heap2.o(i.posix_memalign$realtime) refers to fdtree.o(i._FDTree_RemoveNode) for _FDTree_RemoveNode
    heap2.o(i.posix_memalign$realtime) refers to fdtree.o(i._FDTree_Insert) for _FDTree_Insert
    heap2.o(i.realloc$realtime) refers to rt_heap_descriptor_intlibspace.o(.text) for __rt_heap_descriptor
    heap2.o(i.realloc$realtime) refers to fdtree.o(i._FDTree_Insert) for _FDTree_Insert
    heap2.o(i.realloc$realtime) refers to h1_free.o(.text) for free
    heap2.o(i.realloc$realtime) refers to h1_alloc.o(.text) for malloc
    heap2.o(i.realloc$realtime) refers to fdtree.o(i._FDTree_Delete) for _FDTree_Delete
    heap2.o(i.realloc$realtime) refers to rt_memcpy_w.o(.text) for __aeabi_memcpy4
    heap2_threads.o(i._FDIterate) refers to heap2_threads.o(.conststring) for .conststring
    heap2_threads.o(i.__Heap_Initialize$realtime$concurrent) refers to mutex_dummy.o(.text) for _mutex_initialize
    heap2_threads.o(i.__Heap_ProvideMemory$realtime$concurrent) refers to fdtree.o(i._FDTree_Delete) for _FDTree_Delete
    heap2_threads.o(i.__Heap_ProvideMemory$realtime$concurrent) refers to fdtree.o(i._FDTree_Insert) for _FDTree_Insert
    heap2_threads.o(i.__Heap_Stats$realtime$concurrent) refers to heap2_threads.o(i._Heap2_StatsIterate) for _Heap2_StatsIterate
    heap2_threads.o(i.__Heap_Valid$realtime$concurrent) refers to heap2_threads.o(i._FDIterate) for _FDIterate
    heap2_threads.o(i.__Heap_Valid$realtime$concurrent) refers to heap2_threads.o(.conststring) for .conststring
    heap2_threads.o(i.free$realtime$concurrent) refers to rt_heap_descriptor_intlibspace.o(.text) for __rt_heap_descriptor
    heap2_threads.o(i.free$realtime$concurrent) refers to fdtree.o(i._FDTree_Delete) for _FDTree_Delete
    heap2_threads.o(i.free$realtime$concurrent) refers to fdtree.o(i._FDTree_Insert) for _FDTree_Insert
    heap2_threads.o(i.malloc$realtime$concurrent) refers to rt_heap_descriptor_intlibspace.o(.text) for __rt_heap_descriptor
    heap2_threads.o(i.malloc$realtime$concurrent) refers to fdtree.o(i._FDTree_FindFirst) for _FDTree_FindFirst
    heap2_threads.o(i.malloc$realtime$concurrent) refers to init_alloc.o(.text) for __Heap_Full
    heap2_threads.o(i.malloc$realtime$concurrent) refers to fdtree.o(i._FDTree_RemoveNode) for _FDTree_RemoveNode
    heap2_threads.o(i.malloc$realtime$concurrent) refers to fdtree.o(i._FDTree_Insert) for _FDTree_Insert
    heap2_threads.o(i.posix_memalign$realtime$concurrent) refers to rt_heap_descriptor_intlibspace.o(.text) for __rt_heap_descriptor
    heap2_threads.o(i.posix_memalign$realtime$concurrent) refers to fdtree.o(i._FDTree_FindFirst) for _FDTree_FindFirst
    heap2_threads.o(i.posix_memalign$realtime$concurrent) refers to init_alloc.o(.text) for __Heap_Full
    heap2_threads.o(i.posix_memalign$realtime$concurrent) refers to fdtree.o(i._FDTree_RemoveNode) for _FDTree_RemoveNode
    heap2_threads.o(i.posix_memalign$realtime$concurrent) refers to fdtree.o(i._FDTree_Insert) for _FDTree_Insert
    heap2_threads.o(i.realloc$realtime$concurrent) refers to rt_heap_descriptor_intlibspace.o(.text) for __rt_heap_descriptor
    heap2_threads.o(i.realloc$realtime$concurrent) refers to fdtree.o(i._FDTree_Insert) for _FDTree_Insert
    heap2_threads.o(i.realloc$realtime$concurrent) refers to h1_free.o(.text) for free
    heap2_threads.o(i.realloc$realtime$concurrent) refers to h1_alloc.o(.text) for malloc
    heap2_threads.o(i.realloc$realtime$concurrent) refers to fdtree.o(i._FDTree_Delete) for _FDTree_Delete
    heap2_threads.o(i.realloc$realtime$concurrent) refers to rt_memcpy_w.o(.text) for __aeabi_memcpy4
    _printf_fp_infnan.o(.text) refers (Weak) to _printf_pad.o(.text) for _printf_pre_padding
    _printf_fp_infnan.o(.text) refers (Weak) to _printf_pad.o(.text) for _printf_post_padding
    bigflt0.o(.text) refers (Special) to usenofp.o(x$fpl$usenofp) for __I$use$fp
    bigflt0.o(.text) refers to btod.o(CL$$btod_emul) for _btod_emul
    bigflt0.o(.text) refers to btod.o(CL$$btod_ediv) for _btod_ediv
    bigflt0.o(.text) refers to bigflt0.o(.constdata) for .constdata
    bigflt0.o(.constdata) refers (Special) to usenofp.o(x$fpl$usenofp) for __I$use$fp
    btod.o(CL$$btod_d2e) refers (Special) to usenofp.o(x$fpl$usenofp) for __I$use$fp
    btod.o(CL$$btod_d2e) refers to btod.o(CL$$btod_d2e_norm_op1) for _d2e_norm_op1
    btod.o(CL$$btod_d2e_norm_op1) refers (Special) to usenofp.o(x$fpl$usenofp) for __I$use$fp
    btod.o(CL$$btod_d2e_norm_op1) refers to btod.o(CL$$btod_d2e_denorm_low) for _d2e_denorm_low
    btod.o(CL$$btod_d2e_denorm_low) refers (Special) to usenofp.o(x$fpl$usenofp) for __I$use$fp
    btod.o(CL$$btod_emul) refers (Special) to usenofp.o(x$fpl$usenofp) for __I$use$fp
    btod.o(CL$$btod_emul) refers to btod.o(CL$$btod_mult_common) for __btod_mult_common
    btod.o(CL$$btod_emul) refers to btod.o(CL$$btod_e2e) for _e2e
    btod.o(CL$$btod_ediv) refers (Special) to usenofp.o(x$fpl$usenofp) for __I$use$fp
    btod.o(CL$$btod_ediv) refers to btod.o(CL$$btod_div_common) for __btod_div_common
    btod.o(CL$$btod_ediv) refers to btod.o(CL$$btod_e2e) for _e2e
    btod.o(CL$$btod_emuld) refers (Special) to usenofp.o(x$fpl$usenofp) for __I$use$fp
    btod.o(CL$$btod_emuld) refers to btod.o(CL$$btod_mult_common) for __btod_mult_common
    btod.o(CL$$btod_emuld) refers to btod.o(CL$$btod_e2d) for _e2d
    btod.o(CL$$btod_edivd) refers (Special) to usenofp.o(x$fpl$usenofp) for __I$use$fp
    btod.o(CL$$btod_edivd) refers to btod.o(CL$$btod_div_common) for __btod_div_common
    btod.o(CL$$btod_edivd) refers to btod.o(CL$$btod_e2d) for _e2d
    btod.o(CL$$btod_e2e) refers (Special) to usenofp.o(x$fpl$usenofp) for __I$use$fp
    btod.o(CL$$btod_e2d) refers (Special) to usenofp.o(x$fpl$usenofp) for __I$use$fp
    btod.o(CL$$btod_e2d) refers to btod.o(CL$$btod_e2e) for _e2e
    btod.o(CL$$btod_mult_common) refers (Special) to usenofp.o(x$fpl$usenofp) for __I$use$fp
    btod.o(CL$$btod_div_common) refers (Special) to usenofp.o(x$fpl$usenofp) for __I$use$fp
    btod_accurate.o(.text) refers to btod_accurate_common.o(.text) for _btod_common
    flsbuf.o(.text) refers to stdio.o(.text) for _deferredlazyseek
    flsbuf.o(.text) refers to retarget_io.o(.text._sys_flen) for _sys_flen
    flsbuf.o(.text) refers to retarget_io.o(.text._sys_istty) for _sys_istty
    flsbuf.o(.text) refers to h1_alloc.o(.text) for malloc
    streamlock.o(.data) refers (Special) to initio.o(.text) for _initio
    fopen.o(.text) refers to fclose.o(.text) for _fclose_internal
    fopen.o(.text) refers to retarget_io.o(.text._sys_open) for _sys_open
    fopen.o(.text) refers to fseek.o(.text) for _fseek
    fopen.o(.text) refers to h1_alloc.o(.text) for malloc
    fopen.o(.text) refers to rt_memclr_w.o(.text) for __aeabi_memclr4
    fopen.o(.text) refers to stdio_streams.o(.bss) for __stdin
    fclose.o(.text) refers to stdio.o(.text) for _fflush
    fclose.o(.text) refers to retarget_io.o(.text._sys_close) for _sys_close
    fclose.o(.text) refers to h1_free.o(.text) for free
    fclose.o(.text) refers to rt_memclr_w.o(.text) for __aeabi_memclr4
    fopen_locked.o(.text) refers to fclose.o(.text) for _fclose_internal
    fopen_locked.o(.text) refers to retarget_io.o(.text._sys_open) for _sys_open
    fopen_locked.o(.text) refers to fseek.o(.text) for _fseek
    fopen_locked.o(.text) refers to h1_alloc.o(.text) for malloc
    fopen_locked.o(.text) refers to rt_memclr_w.o(.text) for __aeabi_memclr4
    fopen_locked.o(.text) refers to streamlock.o(.data) for _stream_list_lock
    fopen_locked.o(.text) refers to stdio_streams.o(.bss) for __stdin
    lc_numeric_c.o(locale$$data) refers (Special) to libinit2.o(.ARM.Collect$$libinit$$00000018) for __rt_lib_init_lc_numeric_2
    lc_numeric_c.o(locale$$code) refers (Special) to libinit2.o(.ARM.Collect$$libinit$$00000018) for __rt_lib_init_lc_numeric_2
    lc_numeric_c.o(locale$$code) refers to strcmpv7em.o(.text) for strcmp
    lc_numeric_c.o(locale$$code) refers to lc_numeric_c.o(locale$$data) for __lcnum_c_name
    exit.o(.text) refers to rtexit.o(.ARM.Collect$$rtexit$$00000000) for __rt_exit
    defsig_rtred_outer.o(.text) refers to defsig_rtred_inner.o(.text) for __rt_SIGRTRED_inner
    defsig_rtred_outer.o(.text) refers to defsig_exit.o(.text) for __sig_exit
    defsig_rtred_formal.o(.text) refers to rt_raise.o(.text) for __rt_raise
    libinit.o(.ARM.Collect$$libinit$$00000000) refers (Special) to libinit2.o(.ARM.Collect$$libinit$$00000030) for __rt_lib_init_alloca_1
    libinit.o(.ARM.Collect$$libinit$$00000000) refers (Special) to libinit2.o(.ARM.Collect$$libinit$$0000002E) for __rt_lib_init_argv_1
    libinit.o(.ARM.Collect$$libinit$$00000000) refers (Special) to libinit2.o(.ARM.Collect$$libinit$$0000001D) for __rt_lib_init_atexit_1
    libinit.o(.ARM.Collect$$libinit$$00000000) refers (Special) to libinit2.o(.ARM.Collect$$libinit$$00000023) for __rt_lib_init_clock_1
    libinit.o(.ARM.Collect$$libinit$$00000000) refers (Special) to libinit2.o(.ARM.Collect$$libinit$$00000034) for __rt_lib_init_cpp_1
    libinit.o(.ARM.Collect$$libinit$$00000000) refers (Special) to libinit2.o(.ARM.Collect$$libinit$$00000032) for __rt_lib_init_exceptions_1
    libinit.o(.ARM.Collect$$libinit$$00000000) refers (Special) to libinit2.o(.ARM.Collect$$libinit$$00000001) for __rt_lib_init_fp_1
    libinit.o(.ARM.Collect$$libinit$$00000000) refers (Special) to libinit2.o(.ARM.Collect$$libinit$$00000021) for __rt_lib_init_fp_trap_1
    libinit.o(.ARM.Collect$$libinit$$00000000) refers (Special) to libinit2.o(.ARM.Collect$$libinit$$00000025) for __rt_lib_init_getenv_1
    libinit.o(.ARM.Collect$$libinit$$00000000) refers (Special) to libinit2.o(.ARM.Collect$$libinit$$0000000C) for __rt_lib_init_heap_1
    libinit.o(.ARM.Collect$$libinit$$00000000) refers (Special) to libinit2.o(.ARM.Collect$$libinit$$00000013) for __rt_lib_init_lc_collate_1
    libinit.o(.ARM.Collect$$libinit$$00000000) refers (Special) to libinit2.o(.ARM.Collect$$libinit$$00000015) for __rt_lib_init_lc_ctype_1
    libinit.o(.ARM.Collect$$libinit$$00000000) refers (Special) to libinit2.o(.ARM.Collect$$libinit$$00000017) for __rt_lib_init_lc_monetary_1
    libinit.o(.ARM.Collect$$libinit$$00000000) refers (Special) to libinit2.o(.ARM.Collect$$libinit$$00000019) for __rt_lib_init_lc_numeric_1
    libinit.o(.ARM.Collect$$libinit$$00000000) refers (Special) to libinit2.o(.ARM.Collect$$libinit$$0000001B) for __rt_lib_init_lc_time_1
    libinit.o(.ARM.Collect$$libinit$$00000000) refers (Special) to libinit2.o(.ARM.Collect$$libinit$$00000006) for __rt_lib_init_preinit_1
    libinit.o(.ARM.Collect$$libinit$$00000000) refers (Special) to libinit2.o(.ARM.Collect$$libinit$$00000010) for __rt_lib_init_rand_1
    libinit.o(.ARM.Collect$$libinit$$00000000) refers (Special) to libinit2.o(.ARM.Collect$$libinit$$00000004) for __rt_lib_init_relocate_pie_1
    libinit.o(.ARM.Collect$$libinit$$00000000) refers (Special) to libinit2.o(.ARM.Collect$$libinit$$00000035) for __rt_lib_init_return
    libinit.o(.ARM.Collect$$libinit$$00000000) refers (Special) to libinit2.o(.ARM.Collect$$libinit$$0000001F) for __rt_lib_init_signal_1
    libinit.o(.ARM.Collect$$libinit$$00000000) refers (Special) to libinit2.o(.ARM.Collect$$libinit$$00000027) for __rt_lib_init_stdio_1
    libinit.o(.ARM.Collect$$libinit$$00000000) refers (Special) to libinit2.o(.ARM.Collect$$libinit$$0000000E) for __rt_lib_init_user_alloc_1
    libinit2.o(.ARM.Collect$$libinit$$00000001) refers to fpinit.o(x$fpl$fpinit) for _fp_init
    libinit2.o(.ARM.Collect$$libinit$$00000007) refers (Weak) to init_alloc.o(.text) for _init_alloc
    libinit2.o(.ARM.Collect$$libinit$$00000011) refers (Weak) to rt_locale_intlibspace.o(.text) for __rt_locale
    libinit2.o(.ARM.Collect$$libinit$$00000012) refers to libinit2.o(.ARM.Collect$$libinit$$00000011) for .ARM.Collect$$libinit$$00000011
    libinit2.o(.ARM.Collect$$libinit$$00000014) refers to libinit2.o(.ARM.Collect$$libinit$$00000011) for .ARM.Collect$$libinit$$00000011
    libinit2.o(.ARM.Collect$$libinit$$00000014) refers (Weak) to lc_ctype_c.o(locale$$code) for _get_lc_ctype
    libinit2.o(.ARM.Collect$$libinit$$00000016) refers to libinit2.o(.ARM.Collect$$libinit$$00000011) for .ARM.Collect$$libinit$$00000011
    libinit2.o(.ARM.Collect$$libinit$$00000018) refers to libinit2.o(.ARM.Collect$$libinit$$00000011) for .ARM.Collect$$libinit$$00000011
    libinit2.o(.ARM.Collect$$libinit$$00000018) refers (Weak) to lc_numeric_c.o(locale$$code) for _get_lc_numeric
    libinit2.o(.ARM.Collect$$libinit$$0000001A) refers to libinit2.o(.ARM.Collect$$libinit$$00000011) for .ARM.Collect$$libinit$$00000011
    libinit2.o(.ARM.Collect$$libinit$$00000026) refers (Weak) to initio.o(.text) for _initio
    libinit2.o(.ARM.Collect$$libinit$$00000028) refers to argv_veneer.o(.emb_text) for __ARM_argv_veneer
    libinit2.o(.ARM.Collect$$libinit$$00000029) refers to argv_veneer.o(.emb_text) for __ARM_argv_veneer
    libshutdown2.o(.ARM.Collect$$libshutdown$$00000003) refers (Weak) to initio.o(.text) for _terminateio
    libshutdown2.o(.ARM.Collect$$libshutdown$$0000000D) refers (Weak) to term_alloc.o(.text) for _terminate_alloc
    flsbuf_fwide.o(.text) refers to flsbuf.o(.text) for __flsbuf
    istatus.o(x$fpl$ieeestatus) refers (Special) to usenofp.o(x$fpl$usenofp) for __I$use$fp
    fpclassify.o(i.__ARM_fpclassify) refers (Special) to usenofp.o(x$fpl$usenofp) for __I$use$fp
    libspace.o(.text) refers to libspace.o(.bss) for __libspace_start
    sys_stackheap.o(.text) refers (Special) to indicate_semi.o(.text) for __semihosting_library_function
    sys_stackheap.o(.text) refers to use_no_semi.o(.text) for __I$use$semihosting
    sys_stackheap_hlt.o(.text) refers (Special) to indicate_semi.o(.text) for __semihosting_library_function
    sys_stackheap_hlt.o(.text) refers to use_no_semi.o(.text) for __I$use$semihosting
    rtexit.o(.ARM.Collect$$rtexit$$00000000) refers (Special) to rtexit2.o(.ARM.Collect$$rtexit$$00000004) for __rt_exit_exit
    rtexit.o(.ARM.Collect$$rtexit$$00000000) refers (Special) to rtexit2.o(.ARM.Collect$$rtexit$$00000003) for __rt_exit_ls
    rtexit.o(.ARM.Collect$$rtexit$$00000000) refers (Special) to rtexit2.o(.ARM.Collect$$rtexit$$00000002) for __rt_exit_prels_1
    rtexit.o(.ARM.exidx) refers (Special) to rtexit2.o(.ARM.Collect$$rtexit$$00000004) for __rt_exit_exit
    rtexit.o(.ARM.exidx) refers (Special) to rtexit2.o(.ARM.Collect$$rtexit$$00000003) for __rt_exit_ls
    rtexit.o(.ARM.exidx) refers (Special) to rtexit2.o(.ARM.Collect$$rtexit$$00000002) for __rt_exit_prels_1
    rtexit.o(.ARM.exidx) refers to rtexit.o(.ARM.Collect$$rtexit$$00000000) for .ARM.Collect$$rtexit$$00000000
    rt_raise.o(.text) refers to __raise.o(.text) for __raise
    rt_raise.o(.text) refers to sys_exit.o(.text) for _sys_exit
    rt_heap_descriptor.o(.text) refers to rt_heap_descriptor.o(.bss) for __rt_heap_descriptor_data
    rt_heap_descriptor_intlibspace.o(.text) refers to libspace.o(.bss) for __libspace_start
    init_alloc.o(.text) refers (Special) to hguard.o(.text) for __heap$guard
    init_alloc.o(.text) refers (Special) to libinit5.o(.ARM.Collect$$libinit$$0000000A) for __rt_lib_init_heap_2
    init_alloc.o(.text) refers (Special) to maybetermalloc1.o(.text) for _maybe_terminate_alloc
    init_alloc.o(.text) refers to h1_extend.o(.text) for __Heap_ProvideMemory
    init_alloc.o(.text) refers to defsig_rtmem_outer.o(.text) for __rt_SIGRTMEM
    init_alloc.o(.text) refers to rt_heap_descriptor_intlibspace.o(.text) for __rt_heap_descriptor
    init_alloc.o(.text) refers to h1_init.o(.text) for __Heap_Initialize
    malloc.o(.text) refers (Special) to hguard.o(.text) for __heap$guard
    malloc.o(.text) refers (Special) to init_alloc.o(.text) for _init_alloc
    malloc.o(.text) refers to rt_heap_descriptor_intlibspace.o(.text) for __rt_heap_descriptor
    malloc.o(.text) refers to heapstubs.o(.text) for __Heap_Alloc
    h1_alloc.o(.text) refers (Special) to h1_init.o(.text) for __Heap_Initialize
    h1_alloc.o(.text) refers to rt_heap_descriptor_intlibspace.o(.text) for __rt_heap_descriptor
    h1_alloc.o(.text) refers to init_alloc.o(.text) for __Heap_Full
    h1_alloc_threads.o(.text) refers (Special) to h1_init.o(.text) for __Heap_Initialize
    h1_alloc_threads.o(.text) refers to init_alloc.o(.text) for __Heap_Full
    h1_alloc_threads.o(.text) refers to rt_heap_descriptor_intlibspace.o(.text) for __rt_heap_descriptor
    _printf_char_file_locked.o(.text) refers to _printf_char_common.o(.text) for _printf_char_common
    _printf_char_file_locked.o(.text) refers to fputc.o(i._fputc$unlocked) for _fputc$unlocked
    btod_accurate_common.o(.text) refers to llushr.o(.text) for __aeabi_llsr
    fseek.o(.text) refers to retarget_io.o(.text._sys_istty) for _sys_istty
    fseek.o(.text) refers to ftell.o(.text) for _ftell_internal
    fseek.o(.text) refers to retarget_io.o(.text._sys_flen) for _sys_flen
    fseek.o(.text) refers to stdio.o(.text) for _seterr
    stdio.o(.text) refers to retarget_io.o(.text._sys_seek) for _sys_seek
    stdio.o(.text) refers to retarget_io.o(.text._sys_write) for _sys_write
    fwritefast.o(.text) refers to stdio.o(.text) for _writebuf
    fwritefast.o(.text) refers to flsbuf.o(.text) for __flsbuf_byte
    fwritefast.o(.text) refers to rt_memcpy_v6.o(.text) for __aeabi_memcpy
    fwritefast_locked.o(.text) refers to stdio.o(.text) for _writebuf
    fwritefast_locked.o(.text) refers to flsbuf.o(.text) for __flsbuf_byte
    fwritefast_locked.o(.text) refers to rt_memcpy_v6.o(.text) for __aeabi_memcpy
    lc_ctype_c.o(locale$$data) refers (Special) to libinit2.o(.ARM.Collect$$libinit$$00000014) for __rt_lib_init_lc_ctype_2
    lc_ctype_c.o(locale$$code) refers (Special) to libinit2.o(.ARM.Collect$$libinit$$00000014) for __rt_lib_init_lc_ctype_2
    lc_ctype_c.o(locale$$code) refers to strcmpv7em.o(.text) for strcmp
    lc_ctype_c.o(locale$$code) refers to lc_ctype_c.o(locale$$data) for __lcctype_c_name
    defsig_exit.o(.text) refers to sys_exit.o(.text) for _sys_exit
    defsig_rtred_inner.o(.text) refers to defsig_general.o(.text) for __default_signal_display
    assert_stdio.o(.text) refers to fputs.o(.text) for fputs
    assert_stdio.o(.text) refers to fflush.o(.text) for fflush
    assert_stdio.o(.text) refers to stdio_streams.o(.bss) for __stderr
    argv_veneer.o(.emb_text) refers to no_argv.o(.text) for __ARM_get_argv
    libinit5.o(.ARM.Collect$$libinit$$0000000A) refers to libinit5.o(.ARM.Collect$$libinit$$0000271B) for __lit__00000000
    libinit5.o(.ARM.Collect$$libinit$$0000000A) refers (Weak) to init_alloc.o(.text) for _init_alloc
    libinit5.o(.ARM.Collect$$libinit$$0000002C) refers to libinit5.o(.ARM.Collect$$libinit$$0000273D) for __lit__00000002
    libinit5.o(.ARM.Collect$$libinit$$0000002C) refers to argv_veneer.o(.emb_text) for __ARM_argv_veneer
    sys_exit.o(.text) refers (Special) to use_no_semi.o(.text) for __I$use$semihosting
    sys_exit.o(.text) refers (Special) to indicate_semi.o(.text) for __semihosting_library_function
    sys_exit_hlt.o(.text) refers (Special) to use_no_semi.o(.text) for __I$use$semihosting
    sys_exit_hlt.o(.text) refers (Special) to indicate_semi.o(.text) for __semihosting_library_function
    rtexit2.o(.ARM.Collect$$rtexit$$00000003) refers to libshutdown.o(.ARM.Collect$$libshutdown$$00000000) for __rt_lib_shutdown
    rtexit2.o(.ARM.Collect$$rtexit$$00000004) refers to sys_exit.o(.text) for _sys_exit
    rtexit2.o(.ARM.exidx) refers to rtexit2.o(.ARM.Collect$$rtexit$$00000001) for .ARM.Collect$$rtexit$$00000001
    rtexit2.o(.ARM.exidx) refers to rtexit2.o(.ARM.Collect$$rtexit$$00000003) for .ARM.Collect$$rtexit$$00000003
    rtexit2.o(.ARM.exidx) refers to rtexit2.o(.ARM.Collect$$rtexit$$00000004) for .ARM.Collect$$rtexit$$00000004
    maybetermalloc2.o(.text) refers (Special) to term_alloc.o(.text) for _terminate_alloc
    h1_extend.o(.text) refers to h1_free.o(.text) for free
    h1_init_threads.o(.text) refers to mutex_dummy.o(.text) for _mutex_initialize
    h1_extend_threads.o(.text) refers to h1_free_threads.o(.text) for free_internal$concurrent
    fflush.o(.text) refers to stdio.o(.text) for _fflush
    fflush.o(.text) refers to fseek.o(.text) for _fseek
    fflush.o(.text) refers to stdio_streams.o(.bss) for __stdin
    fputs.o(.text) refers to fputc.o(i.fputc) for fputc
    ftell.o(.text) refers to rt_errno_addr_intlibspace.o(.text) for __aeabi_errno_addr
    fflush_locked.o(.text) refers to stdio.o(.text) for _fflush
    fflush_locked.o(.text) refers to fseek.o(.text) for _fseek
    fflush_locked.o(.text) refers to fflush.o(.text) for _do_fflush
    fflush_locked.o(.text) refers to streamlock.o(.data) for _stream_list_lock
    fflush_locked.o(.text) refers to stdio_streams.o(.bss) for __stdin
    __raise.o(.text) refers to defsig.o(CL$$defsig) for __default_signal_handler
    defsig_general.o(.text) refers to sys_wrch.o(.text) for _ttywrch
    defsig_rtmem_outer.o(.text) refers to defsig_rtmem_inner.o(.text) for __rt_SIGRTMEM_inner
    defsig_rtmem_outer.o(.text) refers to defsig_exit.o(.text) for __sig_exit
    defsig_rtmem_formal.o(.text) refers to rt_raise.o(.text) for __rt_raise
    heapauxa.o(.text) refers to heapauxa.o(.data) for .data
    _get_argv.o(.text) refers (Special) to hrguard.o(.text) for __heap_region$guard
    _get_argv.o(.text) refers to h1_alloc.o(.text) for malloc
    _get_argv.o(.text) refers to defsig_rtmem_outer.o(.text) for __rt_SIGRTMEM
    _get_argv.o(.text) refers to sys_command.o(.text) for _sys_command_string
    _get_argv_nomalloc.o(.text) refers (Special) to hrguard.o(.text) for __heap_region$guard
    _get_argv_nomalloc.o(.text) refers to defsig_rtmem_outer.o(.text) for __rt_SIGRTMEM
    _get_argv_nomalloc.o(.text) refers to sys_command.o(.text) for _sys_command_string
    sys_wrch.o(.text) refers (Special) to use_no_semi.o(.text) for __I$use$semihosting
    sys_wrch.o(.text) refers (Special) to indicate_semi.o(.text) for __semihosting_library_function
    sys_command.o(.text) refers (Special) to use_no_semi.o(.text) for __I$use$semihosting
    sys_command.o(.text) refers (Special) to indicate_semi.o(.text) for __semihosting_library_function
    sys_wrch_hlt.o(.text) refers (Special) to use_no_semi.o(.text) for __I$use$semihosting
    sys_wrch_hlt.o(.text) refers (Special) to indicate_semi.o(.text) for __semihosting_library_function
    sys_command_hlt.o(.text) refers (Special) to use_no_semi.o(.text) for __I$use$semihosting
    sys_command_hlt.o(.text) refers (Special) to indicate_semi.o(.text) for __semihosting_library_function
    rt_errno_addr.o(.text) refers to rt_errno_addr.o(.bss) for __aeabi_errno_addr_data
    rt_errno_addr_intlibspace.o(.text) refers to libspace.o(.bss) for __libspace_start
    term_alloc.o(.text) refers (Special) to libshutdown2.o(.ARM.Collect$$libshutdown$$0000000E) for __rt_lib_shutdown_heap_2
    term_alloc.o(.text) refers to rt_heap_descriptor_intlibspace.o(.text) for __rt_heap_descriptor
    term_alloc.o(.text) refers to h1_final.o(.text) for __Heap_Finalize
    defsig_rtmem_inner.o(.text) refers to defsig_general.o(.text) for __default_signal_display
    defsig.o(CL$$defsig) refers to defsig_rtred_inner.o(.text) for __rt_SIGRTRED_inner
    defsig.o(CL$$defsig) refers to defsig_rtmem_inner.o(.text) for __rt_SIGRTMEM_inner
    libshutdown.o(.ARM.Collect$$libshutdown$$00000000) refers (Special) to libshutdown2.o(.ARM.Collect$$libshutdown$$00000002) for __rt_lib_shutdown_cpp_1
    libshutdown.o(.ARM.Collect$$libshutdown$$00000000) refers (Special) to libshutdown2.o(.ARM.Collect$$libshutdown$$00000007) for __rt_lib_shutdown_fp_trap_1
    libshutdown.o(.ARM.Collect$$libshutdown$$00000000) refers (Special) to libshutdown2.o(.ARM.Collect$$libshutdown$$0000000F) for __rt_lib_shutdown_heap_1
    libshutdown.o(.ARM.Collect$$libshutdown$$00000000) refers (Special) to libshutdown2.o(.ARM.Collect$$libshutdown$$00000010) for __rt_lib_shutdown_return
    libshutdown.o(.ARM.Collect$$libshutdown$$00000000) refers (Special) to libshutdown2.o(.ARM.Collect$$libshutdown$$0000000A) for __rt_lib_shutdown_signal_1
    libshutdown.o(.ARM.Collect$$libshutdown$$00000000) refers (Special) to libshutdown2.o(.ARM.Collect$$libshutdown$$00000004) for __rt_lib_shutdown_stdio_1
    libshutdown.o(.ARM.Collect$$libshutdown$$00000000) refers (Special) to libshutdown2.o(.ARM.Collect$$libshutdown$$0000000C) for __rt_lib_shutdown_user_alloc_1
    defsig_abrt_inner.o(.text) refers to defsig_general.o(.text) for __default_signal_display
    defsig_fpe_inner.o(.text) refers to defsig_general.o(.text) for __default_signal_display
    defsig_stak_inner.o(.text) refers to defsig_general.o(.text) for __default_signal_display
    defsig_pvfn_inner.o(.text) refers to defsig_general.o(.text) for __default_signal_display
    defsig_cppl_inner.o(.text) refers to defsig_general.o(.text) for __default_signal_display
    defsig_segv_inner.o(.text) refers to defsig_general.o(.text) for __default_signal_display
    defsig_other.o(.text) refers to defsig_general.o(.text) for __default_signal_display


==============================================================================

Removing Unused input sections from the image.

    Removing task2.o(.text), (0 bytes).
    Removing task2.o(.text.mpu_disable), (14 bytes).
    Removing task2.o(.ARM.exidx.text.mpu_disable), (8 bytes).
    Removing task2.o(.text.mpu_enable), (24 bytes).
    Removing task2.o(.ARM.exidx.text.mpu_enable), (8 bytes).
    Removing task2.o(.text.mpu_region_config), (54 bytes).
    Removing task2.o(.ARM.exidx.text.mpu_region_config), (8 bytes).
    Removing task2.o(.text.mpu_region_disable), (42 bytes).
    Removing task2.o(.ARM.exidx.text.mpu_region_disable), (8 bytes).
    Removing task2.o(.ARM.exidx.text.vTaskStart), (8 bytes).
    Removing task2.o(.ARM.exidx.text.ARM_MPU_Disable), (8 bytes).
    Removing task2.o(.ARM.exidx.text.main), (8 bytes).
    Removing task2.o(.ARM.use_no_argv), (4 bytes).
    Removing usart_v2m-mps2.o(.text), (0 bytes).
    Removing usart_v2m-mps2.o(.ARM.exidx.text.UART0RX_Handler), (8 bytes).
    Removing usart_v2m-mps2.o(.ARM.exidx.text.USARTRX_IRQHandler), (8 bytes).
    Removing usart_v2m-mps2.o(.ARM.exidx.text.UART0TX_Handler), (8 bytes).
    Removing usart_v2m-mps2.o(.ARM.exidx.text.USARTTX_IRQHandler), (8 bytes).
    Removing usart_v2m-mps2.o(.ARM.exidx.text.USARTx_GetVersion), (8 bytes).
    Removing usart_v2m-mps2.o(.ARM.exidx.text.USART0_GetCapabilities), (8 bytes).
    Removing usart_v2m-mps2.o(.ARM.exidx.text.USART0_Initialize), (8 bytes).
    Removing usart_v2m-mps2.o(.ARM.exidx.text.USART0_Uninitialize), (8 bytes).
    Removing usart_v2m-mps2.o(.ARM.exidx.text.USART0_PowerControl), (8 bytes).
    Removing usart_v2m-mps2.o(.ARM.exidx.text.USART0_Send), (8 bytes).
    Removing usart_v2m-mps2.o(.ARM.exidx.text.USART0_Receive), (8 bytes).
    Removing usart_v2m-mps2.o(.ARM.exidx.text.USART0_Transfer), (8 bytes).
    Removing usart_v2m-mps2.o(.ARM.exidx.text.USART0_GetTxCount), (8 bytes).
    Removing usart_v2m-mps2.o(.ARM.exidx.text.USART0_GetRxCount), (8 bytes).
    Removing usart_v2m-mps2.o(.ARM.exidx.text.USART0_Control), (8 bytes).
    Removing usart_v2m-mps2.o(.ARM.exidx.text.USART0_GetStatus), (8 bytes).
    Removing usart_v2m-mps2.o(.ARM.exidx.text.USART0_SetModemControl), (8 bytes).
    Removing usart_v2m-mps2.o(.ARM.exidx.text.USART0_GetModemStatus), (8 bytes).
    Removing usart_v2m-mps2.o(.ARM.exidx.text.USART_GetCapabilities), (8 bytes).
    Removing usart_v2m-mps2.o(.ARM.exidx.text.USART_Initialize), (8 bytes).
    Removing usart_v2m-mps2.o(.ARM.exidx.text.USART_Uninitialize), (8 bytes).
    Removing usart_v2m-mps2.o(.ARM.exidx.text.USART_PowerControl), (8 bytes).
    Removing usart_v2m-mps2.o(.ARM.exidx.text.__NVIC_DisableIRQ), (8 bytes).
    Removing usart_v2m-mps2.o(.ARM.exidx.text.__NVIC_ClearPendingIRQ), (8 bytes).
    Removing usart_v2m-mps2.o(.ARM.exidx.text.__NVIC_EnableIRQ), (8 bytes).
    Removing usart_v2m-mps2.o(.ARM.exidx.text.USART_Send), (8 bytes).
    Removing usart_v2m-mps2.o(.ARM.exidx.text.USART_Receive), (8 bytes).
    Removing usart_v2m-mps2.o(.ARM.exidx.text.USART_Transfer), (8 bytes).
    Removing usart_v2m-mps2.o(.ARM.exidx.text.USART_GetTxCount), (8 bytes).
    Removing usart_v2m-mps2.o(.ARM.exidx.text.USART_GetRxCount), (8 bytes).
    Removing usart_v2m-mps2.o(.ARM.exidx.text.USART_Control), (8 bytes).
    Removing usart_v2m-mps2.o(.ARM.exidx.text.USART_GetStatus), (8 bytes).
    Removing usart_v2m-mps2.o(.ARM.exidx.text.USART_SetModemControl), (8 bytes).
    Removing usart_v2m-mps2.o(.ARM.exidx.text.USART_GetModemStatus), (8 bytes).
    Removing retarget_io.o(.text), (0 bytes).
    Removing retarget_io.o(.ARM.exidx.text._sys_open), (8 bytes).
    Removing retarget_io.o(.ARM.exidx.text._sys_close), (8 bytes).
    Removing retarget_io.o(.ARM.exidx.text._sys_write), (8 bytes).
    Removing retarget_io.o(.text._sys_read), (88 bytes).
    Removing retarget_io.o(.ARM.exidx.text._sys_read), (8 bytes).
    Removing retarget_io.o(.ARM.exidx.text._sys_istty), (8 bytes).
    Removing retarget_io.o(.ARM.exidx.text._sys_seek), (8 bytes).
    Removing retarget_io.o(.ARM.exidx.text._sys_flen), (8 bytes).
    Removing startup_cmsdk_cm4.o(.text), (0 bytes).
    Removing startup_cmsdk_cm4.o(.ARM.exidx.text.Default_Handler), (8 bytes).
    Removing startup_cmsdk_cm4.o(.ARM.exidx.text.Reset_Handler), (8 bytes).
    Removing startup_cmsdk_cm4.o(.ARM.exidx.text.HardFault_Handler), (8 bytes).
    Removing system_cmsdk_cm4.o(.text), (0 bytes).
    Removing system_cmsdk_cm4.o(.text.SystemCoreClockUpdate), (20 bytes).
    Removing system_cmsdk_cm4.o(.ARM.exidx.text.SystemCoreClockUpdate), (8 bytes).
    Removing system_cmsdk_cm4.o(.ARM.exidx.text.SystemInit), (8 bytes).
    Removing task2a.o(.rev16_text), (4 bytes).
    Removing task2a.o(.revsh_text), (4 bytes).
    Removing task2a.o(.rrx_text), (6 bytes).
    Removing task2a.o(.data), (4 bytes).
    Removing tasks.o(.rev16_text), (4 bytes).
    Removing tasks.o(.revsh_text), (4 bytes).
    Removing tasks.o(.rrx_text), (6 bytes).
    Removing list.o(.rev16_text), (4 bytes).
    Removing list.o(.revsh_text), (4 bytes).
    Removing list.o(.rrx_text), (6 bytes).
    Removing timers.o(.rev16_text), (4 bytes).
    Removing timers.o(.revsh_text), (4 bytes).
    Removing timers.o(.rrx_text), (6 bytes).
    Removing heap_4.o(.rev16_text), (4 bytes).
    Removing heap_4.o(.revsh_text), (4 bytes).
    Removing heap_4.o(.rrx_text), (6 bytes).
    Removing port.o(.rev16_text), (4 bytes).
    Removing port.o(.revsh_text), (4 bytes).
    Removing port.o(.rrx_text), (6 bytes).
    Removing queue.o(.rev16_text), (4 bytes).
    Removing queue.o(.revsh_text), (4 bytes).
    Removing queue.o(.rrx_text), (6 bytes).

87 unused section(s) (total 772 bytes) removed from the image.

==============================================================================

Image Symbol Table

    Local Symbols

    Symbol Name                              Value     Ov Type        Size  Object(Section)

    ../clib/angel/boardlib.s                 0x00000000   Number         0  boardinit1.o ABSOLUTE
    ../clib/angel/boardlib.s                 0x00000000   Number         0  boardinit2.o ABSOLUTE
    ../clib/angel/boardlib.s                 0x00000000   Number         0  boardinit3.o ABSOLUTE
    ../clib/angel/boardlib.s                 0x00000000   Number         0  boardshut.o ABSOLUTE
    ../clib/angel/dczerorl.s                 0x00000000   Number         0  __dczerorl.o ABSOLUTE
    ../clib/angel/handlers.s                 0x00000000   Number         0  __scatter_zi.o ABSOLUTE
    ../clib/angel/kernel.s                   0x00000000   Number         0  __rtentry.o ABSOLUTE
    ../clib/angel/kernel.s                   0x00000000   Number         0  __rtentry2.o ABSOLUTE
    ../clib/angel/kernel.s                   0x00000000   Number         0  __rtentry4.o ABSOLUTE
    ../clib/angel/kernel.s                   0x00000000   Number         0  __rtentry7.o ABSOLUTE
    ../clib/angel/kernel.s                   0x00000000   Number         0  rtexit.o ABSOLUTE
    ../clib/angel/kernel.s                   0x00000000   Number         0  rtexit2.o ABSOLUTE
    ../clib/angel/rt.s                       0x00000000   Number         0  rt_ctype_table.o ABSOLUTE
    ../clib/angel/rt.s                       0x00000000   Number         0  rt_locale.o ABSOLUTE
    ../clib/angel/rt.s                       0x00000000   Number         0  rt_locale_intlibspace.o ABSOLUTE
    ../clib/angel/rt.s                       0x00000000   Number         0  rt_raise.o ABSOLUTE
    ../clib/angel/rt.s                       0x00000000   Number         0  rt_heap_descriptor.o ABSOLUTE
    ../clib/angel/rt.s                       0x00000000   Number         0  rt_heap_descriptor_intlibspace.o ABSOLUTE
    ../clib/angel/rt.s                       0x00000000   Number         0  rt_errno_addr.o ABSOLUTE
    ../clib/angel/rt.s                       0x00000000   Number         0  rt_errno_addr_intlibspace.o ABSOLUTE
    ../clib/angel/scatter.s                  0x00000000   Number         0  __scatter.o ABSOLUTE
    ../clib/angel/startup.s                  0x00000000   Number         0  __main.o ABSOLUTE
    ../clib/angel/sys.s                      0x00000000   Number         0  mutex_dummy.o ABSOLUTE
    ../clib/angel/sys.s                      0x00000000   Number         0  sys_stackheap_outer.o ABSOLUTE
    ../clib/angel/sys.s                      0x00000000   Number         0  libspace.o ABSOLUTE
    ../clib/angel/sys.s                      0x00000000   Number         0  sys_stackheap.o ABSOLUTE
    ../clib/angel/sys.s                      0x00000000   Number         0  sys_stackheap_hlt.o ABSOLUTE
    ../clib/angel/sys.s                      0x00000000   Number         0  use_no_semi.o ABSOLUTE
    ../clib/angel/sys.s                      0x00000000   Number         0  indicate_semi.o ABSOLUTE
    ../clib/angel/sysapp.c                   0x00000000   Number         0  sys_exit.o ABSOLUTE
    ../clib/angel/sysapp.c                   0x00000000   Number         0  sys_exit_hlt.o ABSOLUTE
    ../clib/angel/sysapp.c                   0x00000000   Number         0  sys_wrch.o ABSOLUTE
    ../clib/angel/sysapp.c                   0x00000000   Number         0  sys_command.o ABSOLUTE
    ../clib/angel/sysapp.c                   0x00000000   Number         0  sys_wrch_hlt.o ABSOLUTE
    ../clib/angel/sysapp.c                   0x00000000   Number         0  sys_command_hlt.o ABSOLUTE
    ../clib/armsys.c                         0x00000000   Number         0  argv_veneer.o ABSOLUTE
    ../clib/armsys.c                         0x00000000   Number         0  argv_veneer.o ABSOLUTE
    ../clib/armsys.c                         0x00000000   Number         0  _get_argv.o ABSOLUTE
    ../clib/armsys.c                         0x00000000   Number         0  _get_argv_nomalloc.o ABSOLUTE
    ../clib/armsys.c                         0x00000000   Number         0  no_argv.o ABSOLUTE
    ../clib/assert.c                         0x00000000   Number         0  assert_stdio.o ABSOLUTE
    ../clib/bigflt.c                         0x00000000   Number         0  bigflt0.o ABSOLUTE
    ../clib/btod.s                           0x00000000   Number         0  btod.o ABSOLUTE
    ../clib/btod_accurate.c                  0x00000000   Number         0  btod_accurate.o ABSOLUTE
    ../clib/btod_accurate.c                  0x00000000   Number         0  btod_accurate_common.o ABSOLUTE
    ../clib/heap1.c                          0x00000000   Number         0  h1_free.o ABSOLUTE
    ../clib/heap1.c                          0x00000000   Number         0  h1_free_threads.o ABSOLUTE
    ../clib/heap1.c                          0x00000000   Number         0  h1_alloc.o ABSOLUTE
    ../clib/heap1.c                          0x00000000   Number         0  h1_alloc_threads.o ABSOLUTE
    ../clib/heap1.c                          0x00000000   Number         0  h1_init.o ABSOLUTE
    ../clib/heap1.c                          0x00000000   Number         0  h1_extend.o ABSOLUTE
    ../clib/heap1.c                          0x00000000   Number         0  h1_init_threads.o ABSOLUTE
    ../clib/heap1.c                          0x00000000   Number         0  h1_extend_threads.o ABSOLUTE
    ../clib/heap1.c                          0x00000000   Number         0  h1_final.o ABSOLUTE
    ../clib/heap1.c                          0x00000000   Number         0  h1_final_threads.o ABSOLUTE
    ../clib/heap2.c                          0x00000000   Number         0  heap2.o ABSOLUTE
    ../clib/heap2.c                          0x00000000   Number         0  heap2_threads.o ABSOLUTE
    ../clib/heap2.c                          0x00000000   Number         0  fdtree.o ABSOLUTE
    ../clib/heapalloc.c                      0x00000000   Number         0  free.o ABSOLUTE
    ../clib/heapalloc.c                      0x00000000   Number         0  hguard.o ABSOLUTE
    ../clib/heapalloc.c                      0x00000000   Number         0  init_alloc.o ABSOLUTE
    ../clib/heapalloc.c                      0x00000000   Number         0  malloc.o ABSOLUTE
    ../clib/heapalloc.c                      0x00000000   Number         0  heapstubs.o ABSOLUTE
    ../clib/heapalloc.c                      0x00000000   Number         0  hrguard.o ABSOLUTE
    ../clib/heapalloc.c                      0x00000000   Number         0  term_alloc.o ABSOLUTE
    ../clib/heapaux.c                        0x00000000   Number         0  heapauxa.o ABSOLUTE
    ../clib/heapaux.c                        0x00000000   Number         0  heapauxi.o ABSOLUTE
    ../clib/libinit.s                        0x00000000   Number         0  libinit.o ABSOLUTE
    ../clib/libinit.s                        0x00000000   Number         0  libinit2.o ABSOLUTE
    ../clib/libinit.s                        0x00000000   Number         0  libshutdown2.o ABSOLUTE
    ../clib/libinit.s                        0x00000000   Number         0  libinit5.o ABSOLUTE
    ../clib/libinit.s                        0x00000000   Number         0  libshutdown.o ABSOLUTE
    ../clib/locale.c                         0x00000000   Number         0  _c16rtomb.o ABSOLUTE
    ../clib/locale.s                         0x00000000   Number         0  lc_numeric_c.o ABSOLUTE
    ../clib/locale.s                         0x00000000   Number         0  lc_ctype_c.o ABSOLUTE
    ../clib/longlong.s                       0x00000000   Number         0  lludiv10.o ABSOLUTE
    ../clib/longlong.s                       0x00000000   Number         0  llushr.o ABSOLUTE
    ../clib/maybe.s                          0x00000000   Number         0  maybetermalloc1.o ABSOLUTE
    ../clib/maybe.s                          0x00000000   Number         0  maybetermalloc2.o ABSOLUTE
    ../clib/memcpset.s                       0x00000000   Number         0  rt_memcpy_v6.o ABSOLUTE
    ../clib/memcpset.s                       0x00000000   Number         0  aeabi_memset.o ABSOLUTE
    ../clib/memcpset.s                       0x00000000   Number         0  strcmpv7em.o ABSOLUTE
    ../clib/memcpset.s                       0x00000000   Number         0  rt_memcpy_w.o ABSOLUTE
    ../clib/memcpset.s                       0x00000000   Number         0  rt_memclr.o ABSOLUTE
    ../clib/memcpset.s                       0x00000000   Number         0  rt_memclr_w.o ABSOLUTE
    ../clib/misc.s                           0x00000000   Number         0  printf_stubs.o ABSOLUTE
    ../clib/printf.c                         0x00000000   Number         0  printf.o ABSOLUTE
    ../clib/printf.c                         0x00000000   Number         0  __2printf.o ABSOLUTE
    ../clib/printf.c                         0x00000000   Number         0  noretval__2printf.o ABSOLUTE
    ../clib/printf.c                         0x00000000   Number         0  __printf.o ABSOLUTE
    ../clib/printf.c                         0x00000000   Number         0  _printf_dec.o ABSOLUTE
    ../clib/printf.c                         0x00000000   Number         0  __printf_flags.o ABSOLUTE
    ../clib/printf.c                         0x00000000   Number         0  __printf_ss.o ABSOLUTE
    ../clib/printf.c                         0x00000000   Number         0  __printf_flags_ss.o ABSOLUTE
    ../clib/printf.c                         0x00000000   Number         0  __printf_wp.o ABSOLUTE
    ../clib/printf.c                         0x00000000   Number         0  __printf_flags_wp.o ABSOLUTE
    ../clib/printf.c                         0x00000000   Number         0  __printf_ss_wp.o ABSOLUTE
    ../clib/printf.c                         0x00000000   Number         0  __printf_flags_ss_wp.o ABSOLUTE
    ../clib/printf.c                         0x00000000   Number         0  _printf_pad.o ABSOLUTE
    ../clib/printf.c                         0x00000000   Number         0  _printf_truncate.o ABSOLUTE
    ../clib/printf.c                         0x00000000   Number         0  _printf_str.o ABSOLUTE
    ../clib/printf.c                         0x00000000   Number         0  _printf_intcommon.o ABSOLUTE
    ../clib/printf.c                         0x00000000   Number         0  _printf_charcount.o ABSOLUTE
    ../clib/printf.c                         0x00000000   Number         0  _printf_char_file.o ABSOLUTE
    ../clib/printf.c                         0x00000000   Number         0  _printf_wctomb.o ABSOLUTE
    ../clib/printf.c                         0x00000000   Number         0  _printf_longlong_dec.o ABSOLUTE
    ../clib/printf.c                         0x00000000   Number         0  _printf_oct_ll.o ABSOLUTE
    ../clib/printf.c                         0x00000000   Number         0  _printf_oct_int.o ABSOLUTE
    ../clib/printf.c                         0x00000000   Number         0  _printf_oct_int_ll.o ABSOLUTE
    ../clib/printf.c                         0x00000000   Number         0  _printf_hex_ll.o ABSOLUTE
    ../clib/printf.c                         0x00000000   Number         0  _printf_hex_int.o ABSOLUTE
    ../clib/printf.c                         0x00000000   Number         0  _printf_hex_int_ll.o ABSOLUTE
    ../clib/printf.c                         0x00000000   Number         0  _printf_hex_ptr.o ABSOLUTE
    ../clib/printf.c                         0x00000000   Number         0  _printf_hex_int_ptr.o ABSOLUTE
    ../clib/printf.c                         0x00000000   Number         0  _printf_hex_ll_ptr.o ABSOLUTE
    ../clib/printf.c                         0x00000000   Number         0  _printf_hex_int_ll_ptr.o ABSOLUTE
    ../clib/printf.c                         0x00000000   Number         0  _printf_fp_dec.o ABSOLUTE
    ../clib/printf.c                         0x00000000   Number         0  _printf_fp_dec_accurate.o ABSOLUTE
    ../clib/printf.c                         0x00000000   Number         0  _printf_fp_hex.o ABSOLUTE
    ../clib/printf.c                         0x00000000   Number         0  _printf_char_common.o ABSOLUTE
    ../clib/printf.c                         0x00000000   Number         0  _printf_char.o ABSOLUTE
    ../clib/printf.c                         0x00000000   Number         0  _printf_wchar.o ABSOLUTE
    ../clib/printf.c                         0x00000000   Number         0  _printf_fp_infnan.o ABSOLUTE
    ../clib/printf.c                         0x00000000   Number         0  __printf_nopercent.o ABSOLUTE
    ../clib/printf.c                         0x00000000   Number         0  _printf_char_file_locked.o ABSOLUTE
    ../clib/printf_percent.s                 0x00000000   Number         0  _printf_u.o ABSOLUTE
    ../clib/printf_percent.s                 0x00000000   Number         0  _printf_percent.o ABSOLUTE
    ../clib/printf_percent.s                 0x00000000   Number         0  _printf_c.o ABSOLUTE
    ../clib/printf_percent.s                 0x00000000   Number         0  _printf_s.o ABSOLUTE
    ../clib/printf_percent.s                 0x00000000   Number         0  _printf_n.o ABSOLUTE
    ../clib/printf_percent.s                 0x00000000   Number         0  _printf_x.o ABSOLUTE
    ../clib/printf_percent.s                 0x00000000   Number         0  _printf_p.o ABSOLUTE
    ../clib/printf_percent.s                 0x00000000   Number         0  _printf_o.o ABSOLUTE
    ../clib/printf_percent.s                 0x00000000   Number         0  _printf_i.o ABSOLUTE
    ../clib/printf_percent.s                 0x00000000   Number         0  _printf_d.o ABSOLUTE
    ../clib/printf_percent.s                 0x00000000   Number         0  _printf_f.o ABSOLUTE
    ../clib/printf_percent.s                 0x00000000   Number         0  _printf_e.o ABSOLUTE
    ../clib/printf_percent.s                 0x00000000   Number         0  _printf_g.o ABSOLUTE
    ../clib/printf_percent.s                 0x00000000   Number         0  _printf_a.o ABSOLUTE
    ../clib/printf_percent.s                 0x00000000   Number         0  _printf_percent_end.o ABSOLUTE
    ../clib/printf_percent.s                 0x00000000   Number         0  _printf_lli.o ABSOLUTE
    ../clib/printf_percent.s                 0x00000000   Number         0  _printf_lld.o ABSOLUTE
    ../clib/printf_percent.s                 0x00000000   Number         0  _printf_llu.o ABSOLUTE
    ../clib/printf_percent.s                 0x00000000   Number         0  _printf_ll.o ABSOLUTE
    ../clib/printf_percent.s                 0x00000000   Number         0  _printf_l.o ABSOLUTE
    ../clib/printf_percent.s                 0x00000000   Number         0  _printf_lc.o ABSOLUTE
    ../clib/printf_percent.s                 0x00000000   Number         0  _printf_ls.o ABSOLUTE
    ../clib/printf_percent.s                 0x00000000   Number         0  _printf_llo.o ABSOLUTE
    ../clib/printf_percent.s                 0x00000000   Number         0  _printf_llx.o ABSOLUTE
    ../clib/signal.c                         0x00000000   Number         0  defsig_rtred_outer.o ABSOLUTE
    ../clib/signal.c                         0x00000000   Number         0  defsig_rtred_formal.o ABSOLUTE
    ../clib/signal.c                         0x00000000   Number         0  defsig_exit.o ABSOLUTE
    ../clib/signal.c                         0x00000000   Number         0  defsig_rtred_inner.o ABSOLUTE
    ../clib/signal.c                         0x00000000   Number         0  __raise.o ABSOLUTE
    ../clib/signal.c                         0x00000000   Number         0  defsig_general.o ABSOLUTE
    ../clib/signal.c                         0x00000000   Number         0  defsig_rtmem_outer.o ABSOLUTE
    ../clib/signal.c                         0x00000000   Number         0  defsig_rtmem_formal.o ABSOLUTE
    ../clib/signal.c                         0x00000000   Number         0  defsig_rtmem_inner.o ABSOLUTE
    ../clib/signal.c                         0x00000000   Number         0  defsig_abrt_inner.o ABSOLUTE
    ../clib/signal.c                         0x00000000   Number         0  defsig_fpe_inner.o ABSOLUTE
    ../clib/signal.c                         0x00000000   Number         0  defsig_stak_inner.o ABSOLUTE
    ../clib/signal.c                         0x00000000   Number         0  defsig_pvfn_inner.o ABSOLUTE
    ../clib/signal.c                         0x00000000   Number         0  defsig_cppl_inner.o ABSOLUTE
    ../clib/signal.c                         0x00000000   Number         0  defsig_segv_inner.o ABSOLUTE
    ../clib/signal.c                         0x00000000   Number         0  defsig_other.o ABSOLUTE
    ../clib/signal.s                         0x00000000   Number         0  defsig.o ABSOLUTE
    ../clib/stdio.c                          0x00000000   Number         0  stdio_streams.o ABSOLUTE
    ../clib/stdio.c                          0x00000000   Number         0  ferror.o ABSOLUTE
    ../clib/stdio.c                          0x00000000   Number         0  fputc.o ABSOLUTE
    ../clib/stdio.c                          0x00000000   Number         0  initio.o ABSOLUTE
    ../clib/stdio.c                          0x00000000   Number         0  fputc_locked.o ABSOLUTE
    ../clib/stdio.c                          0x00000000   Number         0  ferror_locked.o ABSOLUTE
    ../clib/stdio.c                          0x00000000   Number         0  initio_locked.o ABSOLUTE
    ../clib/stdio.c                          0x00000000   Number         0  flsbuf.o ABSOLUTE
    ../clib/stdio.c                          0x00000000   Number         0  setvbuf.o ABSOLUTE
    ../clib/stdio.c                          0x00000000   Number         0  streamlock.o ABSOLUTE
    ../clib/stdio.c                          0x00000000   Number         0  fopen.o ABSOLUTE
    ../clib/stdio.c                          0x00000000   Number         0  fclose.o ABSOLUTE
    ../clib/stdio.c                          0x00000000   Number         0  setvbuf_locked.o ABSOLUTE
    ../clib/stdio.c                          0x00000000   Number         0  fopen_locked.o ABSOLUTE
    ../clib/stdio.c                          0x00000000   Number         0  fseek.o ABSOLUTE
    ../clib/stdio.c                          0x00000000   Number         0  stdio.o ABSOLUTE
    ../clib/stdio.c                          0x00000000   Number         0  fwritefast.o ABSOLUTE
    ../clib/stdio.c                          0x00000000   Number         0  fwritefast_locked.o ABSOLUTE
    ../clib/stdio.c                          0x00000000   Number         0  fflush.o ABSOLUTE
    ../clib/stdio.c                          0x00000000   Number         0  fputs.o ABSOLUTE
    ../clib/stdio.c                          0x00000000   Number         0  ftell.o ABSOLUTE
    ../clib/stdio.c                          0x00000000   Number         0  fputs_locked.o ABSOLUTE
    ../clib/stdio.c                          0x00000000   Number         0  fflush_locked.o ABSOLUTE
    ../clib/stdlib.c                         0x00000000   Number         0  exit.o ABSOLUTE
    ../clib/string.c                         0x00000000   Number         0  strlen.o ABSOLUTE
    ../clib/wchar.c                          0x00000000   Number         0  flsbuf_fwide.o ABSOLUTE
    ../fplib/fpinit.s                        0x00000000   Number         0  fpinit.o ABSOLUTE
    ../fplib/istatus.s                       0x00000000   Number         0  istatus.o ABSOLUTE
    ../fplib/printf1.s                       0x00000000   Number         0  printf1.o ABSOLUTE
    ../fplib/printf2.s                       0x00000000   Number         0  printf2.o ABSOLUTE
    ../fplib/printf2a.s                      0x00000000   Number         0  printf2a.o ABSOLUTE
    ../fplib/printf2b.s                      0x00000000   Number         0  printf2b.o ABSOLUTE
    ../fplib/usenofp.s                       0x00000000   Number         0  usenofp.o ABSOLUTE
    ../mathlib/fpclassify.c                  0x00000000   Number         0  fpclassify.o ABSOLUTE
    FreeRTOS\\list.c                         0x00000000   Number         0  list.o ABSOLUTE
    FreeRTOS\\portable\\MemMang\\heap_4.c    0x00000000   Number         0  heap_4.o ABSOLUTE
    FreeRTOS\\portable\\RVDS\\ARM_CM4_MPU\\port.c 0x00000000   Number         0  port.o ABSOLUTE
    FreeRTOS\\queue.c                        0x00000000   Number         0  queue.o ABSOLUTE
    FreeRTOS\\tasks.c                        0x00000000   Number         0  tasks.o ABSOLUTE
    FreeRTOS\\timers.c                       0x00000000   Number         0  timers.o ABSOLUTE
    FreeRTOS\list.c                          0x00000000   Number         0  list.o ABSOLUTE
    FreeRTOS\portable\MemMang\heap_4.c       0x00000000   Number         0  heap_4.o ABSOLUTE
    FreeRTOS\portable\RVDS\ARM_CM4_MPU\port.c 0x00000000   Number         0  port.o ABSOLUTE
    FreeRTOS\queue.c                         0x00000000   Number         0  queue.o ABSOLUTE
    FreeRTOS\tasks.c                         0x00000000   Number         0  tasks.o ABSOLUTE
    FreeRTOS\timers.c                        0x00000000   Number         0  timers.o ABSOLUTE
    USART_V2M-MPS2.c                         0x00000000   Number         0  usart_v2m-mps2.o ABSOLUTE
    __tagsym$$used.0                         0x00000000   Number         0  startup_cmsdk_cm4.o(RESET)
    dc.s                                     0x00000000   Number         0  dc.o ABSOLUTE
    retarget_io.c                            0x00000000   Number         0  retarget_io.o ABSOLUTE
    startup_CMSDK_CM4.c                      0x00000000   Number         0  startup_cmsdk_cm4.o ABSOLUTE
    stdout_USART.c                           0x00000000   Number         0  stdout_usart.o ABSOLUTE
    system_CMSDK_CM4.c                       0x00000000   Number         0  system_cmsdk_cm4.o ABSOLUTE
    task2.c                                  0x00000000   Number         0  task2.o ABSOLUTE
    task2a.c                                 0x00000000   Number         0  task2a.o ABSOLUTE
    task2a.c                                 0x00000000   Number         0  task2a.o ABSOLUTE
    !!!main                                  0x00000400   Section        8  __main.o(!!!main)
    !!!scatter                               0x00000408   Section       52  __scatter.o(!!!scatter)
    !!dczerorl                               0x0000043c   Section       58  __dczerorl.o(!!dczerorl)
    !!handler_zi                             0x00000478   Section       28  __scatter_zi.o(!!handler_zi)
    .ARM.Collect$$_printf_percent$$00000000  0x00000494   Section        0  _printf_percent.o(.ARM.Collect$$_printf_percent$$00000000)
    .ARM.Collect$$_printf_percent$$00000001  0x00000494   Section        6  _printf_n.o(.ARM.Collect$$_printf_percent$$00000001)
    .ARM.Collect$$_printf_percent$$00000002  0x0000049a   Section        6  _printf_p.o(.ARM.Collect$$_printf_percent$$00000002)
    .ARM.Collect$$_printf_percent$$00000003  0x000004a0   Section        6  _printf_f.o(.ARM.Collect$$_printf_percent$$00000003)
    .ARM.Collect$$_printf_percent$$00000004  0x000004a6   Section        6  _printf_e.o(.ARM.Collect$$_printf_percent$$00000004)
    .ARM.Collect$$_printf_percent$$00000005  0x000004ac   Section        6  _printf_g.o(.ARM.Collect$$_printf_percent$$00000005)
    .ARM.Collect$$_printf_percent$$00000006  0x000004b2   Section        6  _printf_a.o(.ARM.Collect$$_printf_percent$$00000006)
    .ARM.Collect$$_printf_percent$$00000007  0x000004b8   Section       10  _printf_ll.o(.ARM.Collect$$_printf_percent$$00000007)
    .ARM.Collect$$_printf_percent$$00000008  0x000004c2   Section        6  _printf_i.o(.ARM.Collect$$_printf_percent$$00000008)
    .ARM.Collect$$_printf_percent$$00000009  0x000004c8   Section        6  _printf_d.o(.ARM.Collect$$_printf_percent$$00000009)
    .ARM.Collect$$_printf_percent$$0000000A  0x000004ce   Section        6  _printf_u.o(.ARM.Collect$$_printf_percent$$0000000A)
    .ARM.Collect$$_printf_percent$$0000000B  0x000004d4   Section        6  _printf_o.o(.ARM.Collect$$_printf_percent$$0000000B)
    .ARM.Collect$$_printf_percent$$0000000C  0x000004da   Section        6  _printf_x.o(.ARM.Collect$$_printf_percent$$0000000C)
    .ARM.Collect$$_printf_percent$$0000000D  0x000004e0   Section        6  _printf_lli.o(.ARM.Collect$$_printf_percent$$0000000D)
    .ARM.Collect$$_printf_percent$$0000000E  0x000004e6   Section        6  _printf_lld.o(.ARM.Collect$$_printf_percent$$0000000E)
    .ARM.Collect$$_printf_percent$$0000000F  0x000004ec   Section        6  _printf_llu.o(.ARM.Collect$$_printf_percent$$0000000F)
    .ARM.Collect$$_printf_percent$$00000010  0x000004f2   Section        6  _printf_llo.o(.ARM.Collect$$_printf_percent$$00000010)
    .ARM.Collect$$_printf_percent$$00000011  0x000004f8   Section        6  _printf_llx.o(.ARM.Collect$$_printf_percent$$00000011)
    .ARM.Collect$$_printf_percent$$00000012  0x000004fe   Section       10  _printf_l.o(.ARM.Collect$$_printf_percent$$00000012)
    .ARM.Collect$$_printf_percent$$00000013  0x00000508   Section        6  _printf_c.o(.ARM.Collect$$_printf_percent$$00000013)
    .ARM.Collect$$_printf_percent$$00000014  0x0000050e   Section        6  _printf_s.o(.ARM.Collect$$_printf_percent$$00000014)
    .ARM.Collect$$_printf_percent$$00000015  0x00000514   Section        6  _printf_lc.o(.ARM.Collect$$_printf_percent$$00000015)
    .ARM.Collect$$_printf_percent$$00000016  0x0000051a   Section        6  _printf_ls.o(.ARM.Collect$$_printf_percent$$00000016)
    .ARM.Collect$$_printf_percent$$00000017  0x00000520   Section        4  _printf_percent_end.o(.ARM.Collect$$_printf_percent$$00000017)
    .ARM.Collect$$libinit$$00000000          0x00000524   Section        2  libinit.o(.ARM.Collect$$libinit$$00000000)
    .ARM.Collect$$libinit$$00000001          0x00000526   Section        4  libinit2.o(.ARM.Collect$$libinit$$00000001)
    .ARM.Collect$$libinit$$00000004          0x0000052a   Section        0  libinit2.o(.ARM.Collect$$libinit$$00000004)
    .ARM.Collect$$libinit$$00000006          0x0000052a   Section        0  libinit2.o(.ARM.Collect$$libinit$$00000006)
    .ARM.Collect$$libinit$$0000000A          0x0000052a   Section        8  libinit5.o(.ARM.Collect$$libinit$$0000000A)
    .ARM.Collect$$libinit$$0000000C          0x00000532   Section        0  libinit2.o(.ARM.Collect$$libinit$$0000000C)
    .ARM.Collect$$libinit$$0000000E          0x00000532   Section        0  libinit2.o(.ARM.Collect$$libinit$$0000000E)
    .ARM.Collect$$libinit$$00000010          0x00000532   Section        0  libinit2.o(.ARM.Collect$$libinit$$00000010)
    .ARM.Collect$$libinit$$00000011          0x00000532   Section        6  libinit2.o(.ARM.Collect$$libinit$$00000011)
    .ARM.Collect$$libinit$$00000013          0x00000538   Section        0  libinit2.o(.ARM.Collect$$libinit$$00000013)
    .ARM.Collect$$libinit$$00000014          0x00000538   Section       12  libinit2.o(.ARM.Collect$$libinit$$00000014)
    .ARM.Collect$$libinit$$00000015          0x00000544   Section        0  libinit2.o(.ARM.Collect$$libinit$$00000015)
    .ARM.Collect$$libinit$$00000017          0x00000544   Section        0  libinit2.o(.ARM.Collect$$libinit$$00000017)
    .ARM.Collect$$libinit$$00000018          0x00000544   Section       10  libinit2.o(.ARM.Collect$$libinit$$00000018)
    .ARM.Collect$$libinit$$00000019          0x0000054e   Section        0  libinit2.o(.ARM.Collect$$libinit$$00000019)
    .ARM.Collect$$libinit$$0000001B          0x0000054e   Section        0  libinit2.o(.ARM.Collect$$libinit$$0000001B)
    .ARM.Collect$$libinit$$0000001D          0x0000054e   Section        0  libinit2.o(.ARM.Collect$$libinit$$0000001D)
    .ARM.Collect$$libinit$$0000001F          0x0000054e   Section        0  libinit2.o(.ARM.Collect$$libinit$$0000001F)
    .ARM.Collect$$libinit$$00000021          0x0000054e   Section        0  libinit2.o(.ARM.Collect$$libinit$$00000021)
    .ARM.Collect$$libinit$$00000023          0x0000054e   Section        0  libinit2.o(.ARM.Collect$$libinit$$00000023)
    .ARM.Collect$$libinit$$00000025          0x0000054e   Section        0  libinit2.o(.ARM.Collect$$libinit$$00000025)
    .ARM.Collect$$libinit$$00000026          0x0000054e   Section        4  libinit2.o(.ARM.Collect$$libinit$$00000026)
    .ARM.Collect$$libinit$$00000027          0x00000552   Section        0  libinit2.o(.ARM.Collect$$libinit$$00000027)
    .ARM.Collect$$libinit$$0000002E          0x00000552   Section        0  libinit2.o(.ARM.Collect$$libinit$$0000002E)
    .ARM.Collect$$libinit$$00000030          0x00000552   Section        0  libinit2.o(.ARM.Collect$$libinit$$00000030)
    .ARM.Collect$$libinit$$00000032          0x00000552   Section        0  libinit2.o(.ARM.Collect$$libinit$$00000032)
    .ARM.Collect$$libinit$$00000034          0x00000552   Section        0  libinit2.o(.ARM.Collect$$libinit$$00000034)
    .ARM.Collect$$libinit$$00000035          0x00000552   Section        2  libinit2.o(.ARM.Collect$$libinit$$00000035)
    __lit__00000000                          0x00000554   Data           4  libinit5.o(.ARM.Collect$$libinit$$0000271B)
    .ARM.Collect$$libinit$$0000271B          0x00000554   Section        8  libinit5.o(.ARM.Collect$$libinit$$0000271B)
    __lit__00000001                          0x00000558   Data           4  libinit5.o(.ARM.Collect$$libinit$$0000271B)
    .ARM.Collect$$libshutdown$$00000000      0x0000055c   Section        2  libshutdown.o(.ARM.Collect$$libshutdown$$00000000)
    .ARM.Collect$$libshutdown$$00000002      0x0000055e   Section        0  libshutdown2.o(.ARM.Collect$$libshutdown$$00000002)
    .ARM.Collect$$libshutdown$$00000003      0x0000055e   Section        4  libshutdown2.o(.ARM.Collect$$libshutdown$$00000003)
    .ARM.Collect$$libshutdown$$00000004      0x00000562   Section        0  libshutdown2.o(.ARM.Collect$$libshutdown$$00000004)
    .ARM.Collect$$libshutdown$$00000007      0x00000562   Section        0  libshutdown2.o(.ARM.Collect$$libshutdown$$00000007)
    .ARM.Collect$$libshutdown$$0000000A      0x00000562   Section        0  libshutdown2.o(.ARM.Collect$$libshutdown$$0000000A)
    .ARM.Collect$$libshutdown$$0000000C      0x00000562   Section        0  libshutdown2.o(.ARM.Collect$$libshutdown$$0000000C)
    .ARM.Collect$$libshutdown$$0000000F      0x00000562   Section        0  libshutdown2.o(.ARM.Collect$$libshutdown$$0000000F)
    .ARM.Collect$$libshutdown$$00000010      0x00000562   Section        2  libshutdown2.o(.ARM.Collect$$libshutdown$$00000010)
    .ARM.Collect$$rtentry$$00000000          0x00000564   Section        0  __rtentry.o(.ARM.Collect$$rtentry$$00000000)
    .ARM.Collect$$rtentry$$00000002          0x00000564   Section        0  __rtentry2.o(.ARM.Collect$$rtentry$$00000002)
    .ARM.Collect$$rtentry$$00000007          0x00000564   Section        4  __rtentry7.o(.ARM.Collect$$rtentry$$00000007)
    .ARM.Collect$$rtentry$$00000009          0x00000568   Section        0  __rtentry2.o(.ARM.Collect$$rtentry$$00000009)
    .ARM.Collect$$rtentry$$0000000A          0x00000568   Section        4  __rtentry2.o(.ARM.Collect$$rtentry$$0000000A)
    .ARM.Collect$$rtentry$$0000000C          0x0000056c   Section        0  __rtentry2.o(.ARM.Collect$$rtentry$$0000000C)
    .ARM.Collect$$rtentry$$0000000D          0x0000056c   Section        8  __rtentry2.o(.ARM.Collect$$rtentry$$0000000D)
    __lit__00000000                          0x00000574   Data           4  __rtentry7.o(.ARM.Collect$$rtentry$$00002718)
    .ARM.Collect$$rtentry$$00002718          0x00000574   Section        4  __rtentry7.o(.ARM.Collect$$rtentry$$00002718)
    .ARM.Collect$$rtexit$$00000000           0x00000578   Section        2  rtexit.o(.ARM.Collect$$rtexit$$00000000)
    .ARM.Collect$$rtexit$$00000002           0x0000057a   Section        0  rtexit2.o(.ARM.Collect$$rtexit$$00000002)
    .ARM.Collect$$rtexit$$00000003           0x0000057a   Section        4  rtexit2.o(.ARM.Collect$$rtexit$$00000003)
    .ARM.Collect$$rtexit$$00000004           0x0000057e   Section        6  rtexit2.o(.ARM.Collect$$rtexit$$00000004)
    $v0                                      0x00000584   Number         0  port.o(.emb_text)
    .emb_text                                0x00000584   Section       60  port.o(.emb_text)
    .text                                    0x000005c0   Section        0  stdout_usart.o(.text)
    .text                                    0x00000618   Section        0  task2a.o(.text)
    prvIdleTask                              0x0000066d   Thumb Code    58  tasks.o(.text)
    .text                                    0x0000066c   Section        0  tasks.o(.text)
    prvResetNextTaskUnblockTime              0x000006d5   Thumb Code    28  tasks.o(.text)
    .text                                    0x000006f4   Section        0  list.o(.text)
    prvInsertBlockIntoFreeList               0x00000781   Thumb Code    72  heap_4.o(.text)
    .text                                    0x00000780   Section        0  heap_4.o(.text)
    prvHeapInit                              0x000007c9   Thumb Code    66  heap_4.o(.text)
    .text                                    0x00000814   Section        0  port.o(.text)
    .text                                    0x000008d0   Section        0  printf.o(.text)
    .text                                    0x000008e8   Section        0  __2printf.o(.text)
    .text                                    0x00000900   Section        0  _printf_dec.o(.text)
    .text                                    0x00000978   Section        0  __printf_flags_ss_wp.o(.text)
    .text                                    0x00000b00   Section        0  strlen.o(.text)
    .text                                    0x00000b3e   Section      138  rt_memcpy_v6.o(.text)
    .text                                    0x00000bc8   Section       16  aeabi_memset.o(.text)
    .text                                    0x00000bd8   Section      124  strcmpv7em.o(.text)
    .text                                    0x00000c54   Section        0  _printf_pad.o(.text)
    .text                                    0x00000ca2   Section        0  _printf_truncate.o(.text)
    .text                                    0x00000cc6   Section        0  _printf_str.o(.text)
    .text                                    0x00000d18   Section        0  _printf_intcommon.o(.text)
    .text                                    0x00000dca   Section        0  _printf_charcount.o(.text)
    .text                                    0x00000df4   Section        0  _printf_char_file.o(.text)
    .text                                    0x00000e18   Section        0  _printf_wctomb.o(.text)
    .text                                    0x00000ed4   Section        0  _printf_longlong_dec.o(.text)
    _printf_longlong_oct_internal            0x00000f51   Thumb Code     0  _printf_oct_int_ll.o(.text)
    .text                                    0x00000f50   Section        0  _printf_oct_int_ll.o(.text)
    _printf_hex_common                       0x00000fc1   Thumb Code     0  _printf_hex_int_ll_ptr.o(.text)
    .text                                    0x00000fc0   Section        0  _printf_hex_int_ll_ptr.o(.text)
    .text                                    0x00001054   Section      100  rt_memcpy_w.o(.text)
    .text                                    0x000010b8   Section       68  rt_memclr.o(.text)
    .text                                    0x000010fc   Section      138  lludiv10.o(.text)
    _fp_digits                               0x00001187   Thumb Code   432  _printf_fp_dec.o(.text)
    .text                                    0x00001186   Section        0  _printf_fp_dec.o(.text)
    .text                                    0x000015a4   Section        0  _printf_fp_hex.o(.text)
    _printf_input_char                       0x000018a1   Thumb Code    10  _printf_char_common.o(.text)
    .text                                    0x000018a0   Section        0  _printf_char_common.o(.text)
    .text                                    0x000018d0   Section        0  _printf_char.o(.text)
    .text                                    0x000018fc   Section        0  _printf_wchar.o(.text)
    .text                                    0x00001928   Section        0  ferror.o(.text)
    .text                                    0x00001930   Section        0  initio.o(.text)
    .text                                    0x00001a68   Section        0  _c16rtomb.o(.text)
    .text                                    0x00001ab0   Section       78  rt_memclr_w.o(.text)
    .text                                    0x00001b00   Section       16  rt_ctype_table.o(.text)
    .text                                    0x00001b10   Section        8  rt_locale_intlibspace.o(.text)
    .text                                    0x00001b18   Section        0  h1_free.o(.text)
    .text                                    0x00001b68   Section        0  _printf_fp_infnan.o(.text)
    .text                                    0x00001be8   Section        0  bigflt0.o(.text)
    .text                                    0x00001ccc   Section        0  flsbuf.o(.text)
    .text                                    0x00001eae   Section        0  setvbuf.o(.text)
    _freopen_locked                          0x00001ef5   Thumb Code     0  fopen.o(.text)
    .text                                    0x00001ef4   Section        0  fopen.o(.text)
    .text                                    0x00001fe4   Section        0  fclose.o(.text)
    .text                                    0x00002030   Section        0  exit.o(.text)
    .text                                    0x00002042   Section        0  defsig_rtred_outer.o(.text)
    .text                                    0x00002050   Section        8  rt_heap_descriptor_intlibspace.o(.text)
    .text                                    0x00002058   Section        0  hguard.o(.text)
    .text                                    0x0000205c   Section        0  init_alloc.o(.text)
    .text                                    0x000020e6   Section        0  h1_alloc.o(.text)
    .text                                    0x00002144   Section        0  fseek.o(.text)
    .text                                    0x0000223c   Section        0  stdio.o(.text)
    .text                                    0x0000232c   Section        0  defsig_exit.o(.text)
    .text                                    0x00002338   Section        0  defsig_rtred_inner.o(.text)
    .text                                    0x0000236c   Section        0  sys_exit.o(.text)
    .text                                    0x00002378   Section        2  use_no_semi.o(.text)
    .text                                    0x0000237a   Section        0  indicate_semi.o(.text)
    .text                                    0x0000237a   Section        0  maybetermalloc1.o(.text)
    .text                                    0x0000237a   Section        0  h1_init.o(.text)
    .text                                    0x00002388   Section        0  h1_extend.o(.text)
    .text                                    0x000023bc   Section        0  ftell.o(.text)
    .text                                    0x000023fe   Section        0  defsig_general.o(.text)
    .text                                    0x00002430   Section        0  defsig_rtmem_outer.o(.text)
    .text                                    0x0000243e   Section        0  sys_wrch.o(.text)
    .text                                    0x0000244c   Section        8  rt_errno_addr_intlibspace.o(.text)
    .text                                    0x00002454   Section        0  defsig_rtmem_inner.o(.text)
    ARM_MPU_Disable                          0x000024a5   Thumb Code    46  task2.o(.text.ARM_MPU_Disable)
    [Anonymous Symbol]                       0x000024a4   Section        0  task2.o(.text.ARM_MPU_Disable)
    [Anonymous Symbol]                       0x000024d4   Section        0  startup_cmsdk_cm4.o(.text.Default_Handler)
    [Anonymous Symbol]                       0x000024d8   Section        0  startup_cmsdk_cm4.o(.text.HardFault_Handler)
    [Anonymous Symbol]                       0x000024dc   Section        0  startup_cmsdk_cm4.o(.text.Reset_Handler)
    [Anonymous Symbol]                       0x000024e4   Section        0  system_cmsdk_cm4.o(.text.SystemInit)
    [Anonymous Symbol]                       0x0000251c   Section        0  usart_v2m-mps2.o(.text.UART0RX_Handler)
    [Anonymous Symbol]                       0x0000252c   Section        0  usart_v2m-mps2.o(.text.UART0TX_Handler)
    USART0_Control                           0x0000253d   Thumb Code    28  usart_v2m-mps2.o(.text.USART0_Control)
    [Anonymous Symbol]                       0x0000253c   Section        0  usart_v2m-mps2.o(.text.USART0_Control)
    USART0_GetCapabilities                   0x00002559   Thumb Code    24  usart_v2m-mps2.o(.text.USART0_GetCapabilities)
    [Anonymous Symbol]                       0x00002558   Section        0  usart_v2m-mps2.o(.text.USART0_GetCapabilities)
    USART0_GetModemStatus                    0x00002571   Thumb Code    24  usart_v2m-mps2.o(.text.USART0_GetModemStatus)
    [Anonymous Symbol]                       0x00002570   Section        0  usart_v2m-mps2.o(.text.USART0_GetModemStatus)
    USART0_GetRxCount                        0x00002589   Thumb Code    16  usart_v2m-mps2.o(.text.USART0_GetRxCount)
    [Anonymous Symbol]                       0x00002588   Section        0  usart_v2m-mps2.o(.text.USART0_GetRxCount)
    USART0_GetStatus                         0x00002599   Thumb Code    24  usart_v2m-mps2.o(.text.USART0_GetStatus)
    [Anonymous Symbol]                       0x00002598   Section        0  usart_v2m-mps2.o(.text.USART0_GetStatus)
    USART0_GetTxCount                        0x000025b1   Thumb Code    16  usart_v2m-mps2.o(.text.USART0_GetTxCount)
    [Anonymous Symbol]                       0x000025b0   Section        0  usart_v2m-mps2.o(.text.USART0_GetTxCount)
    USART0_Initialize                        0x000025c1   Thumb Code    24  usart_v2m-mps2.o(.text.USART0_Initialize)
    [Anonymous Symbol]                       0x000025c0   Section        0  usart_v2m-mps2.o(.text.USART0_Initialize)
    USART0_PowerControl                      0x000025d9   Thumb Code    28  usart_v2m-mps2.o(.text.USART0_PowerControl)
    [Anonymous Symbol]                       0x000025d8   Section        0  usart_v2m-mps2.o(.text.USART0_PowerControl)
    USART0_Receive                           0x000025f5   Thumb Code    28  usart_v2m-mps2.o(.text.USART0_Receive)
    [Anonymous Symbol]                       0x000025f4   Section        0  usart_v2m-mps2.o(.text.USART0_Receive)
    USART0_Send                              0x00002611   Thumb Code    28  usart_v2m-mps2.o(.text.USART0_Send)
    [Anonymous Symbol]                       0x00002610   Section        0  usart_v2m-mps2.o(.text.USART0_Send)
    USART0_SetModemControl                   0x0000262d   Thumb Code    28  usart_v2m-mps2.o(.text.USART0_SetModemControl)
    [Anonymous Symbol]                       0x0000262c   Section        0  usart_v2m-mps2.o(.text.USART0_SetModemControl)
    USART0_Transfer                          0x00002649   Thumb Code    32  usart_v2m-mps2.o(.text.USART0_Transfer)
    [Anonymous Symbol]                       0x00002648   Section        0  usart_v2m-mps2.o(.text.USART0_Transfer)
    USART0_Uninitialize                      0x00002669   Thumb Code    16  usart_v2m-mps2.o(.text.USART0_Uninitialize)
    [Anonymous Symbol]                       0x00002668   Section        0  usart_v2m-mps2.o(.text.USART0_Uninitialize)
    USARTRX_IRQHandler                       0x00002679   Thumb Code   130  usart_v2m-mps2.o(.text.USARTRX_IRQHandler)
    [Anonymous Symbol]                       0x00002678   Section        0  usart_v2m-mps2.o(.text.USARTRX_IRQHandler)
    USARTTX_IRQHandler                       0x000026fd   Thumb Code   128  usart_v2m-mps2.o(.text.USARTTX_IRQHandler)
    [Anonymous Symbol]                       0x000026fc   Section        0  usart_v2m-mps2.o(.text.USARTTX_IRQHandler)
    USART_Control                            0x0000277d   Thumb Code   414  usart_v2m-mps2.o(.text.USART_Control)
    [Anonymous Symbol]                       0x0000277c   Section        0  usart_v2m-mps2.o(.text.USART_Control)
    USART_GetCapabilities                    0x0000291d   Thumb Code    16  usart_v2m-mps2.o(.text.USART_GetCapabilities)
    [Anonymous Symbol]                       0x0000291c   Section        0  usart_v2m-mps2.o(.text.USART_GetCapabilities)
    USART_GetModemStatus                     0x0000292d   Thumb Code    14  usart_v2m-mps2.o(.text.USART_GetModemStatus)
    [Anonymous Symbol]                       0x0000292c   Section        0  usart_v2m-mps2.o(.text.USART_GetModemStatus)
    USART_GetRxCount                         0x0000293d   Thumb Code    14  usart_v2m-mps2.o(.text.USART_GetRxCount)
    [Anonymous Symbol]                       0x0000293c   Section        0  usart_v2m-mps2.o(.text.USART_GetRxCount)
    USART_GetStatus                          0x0000294d   Thumb Code    68  usart_v2m-mps2.o(.text.USART_GetStatus)
    [Anonymous Symbol]                       0x0000294c   Section        0  usart_v2m-mps2.o(.text.USART_GetStatus)
    USART_GetTxCount                         0x00002991   Thumb Code    14  usart_v2m-mps2.o(.text.USART_GetTxCount)
    [Anonymous Symbol]                       0x00002990   Section        0  usart_v2m-mps2.o(.text.USART_GetTxCount)
    USART_Initialize                         0x000029a1   Thumb Code   108  usart_v2m-mps2.o(.text.USART_Initialize)
    [Anonymous Symbol]                       0x000029a0   Section        0  usart_v2m-mps2.o(.text.USART_Initialize)
    USART_PowerControl                       0x00002a0d   Thumb Code   222  usart_v2m-mps2.o(.text.USART_PowerControl)
    [Anonymous Symbol]                       0x00002a0c   Section        0  usart_v2m-mps2.o(.text.USART_PowerControl)
    USART_Receive                            0x00002aed   Thumb Code   142  usart_v2m-mps2.o(.text.USART_Receive)
    [Anonymous Symbol]                       0x00002aec   Section        0  usart_v2m-mps2.o(.text.USART_Receive)
    USART_Send                               0x00002b7d   Thumb Code   148  usart_v2m-mps2.o(.text.USART_Send)
    [Anonymous Symbol]                       0x00002b7c   Section        0  usart_v2m-mps2.o(.text.USART_Send)
    USART_SetModemControl                    0x00002c11   Thumb Code    16  usart_v2m-mps2.o(.text.USART_SetModemControl)
    [Anonymous Symbol]                       0x00002c10   Section        0  usart_v2m-mps2.o(.text.USART_SetModemControl)
    USART_Transfer                           0x00002c21   Thumb Code    18  usart_v2m-mps2.o(.text.USART_Transfer)
    [Anonymous Symbol]                       0x00002c20   Section        0  usart_v2m-mps2.o(.text.USART_Transfer)
    USART_Uninitialize                       0x00002c35   Thumb Code    54  usart_v2m-mps2.o(.text.USART_Uninitialize)
    [Anonymous Symbol]                       0x00002c34   Section        0  usart_v2m-mps2.o(.text.USART_Uninitialize)
    USARTx_GetVersion                        0x00002c6d   Thumb Code    20  usart_v2m-mps2.o(.text.USARTx_GetVersion)
    [Anonymous Symbol]                       0x00002c6c   Section        0  usart_v2m-mps2.o(.text.USARTx_GetVersion)
    __NVIC_ClearPendingIRQ                   0x00002c81   Thumb Code    48  usart_v2m-mps2.o(.text.__NVIC_ClearPendingIRQ)
    [Anonymous Symbol]                       0x00002c80   Section        0  usart_v2m-mps2.o(.text.__NVIC_ClearPendingIRQ)
    __NVIC_DisableIRQ                        0x00002cb1   Thumb Code    56  usart_v2m-mps2.o(.text.__NVIC_DisableIRQ)
    [Anonymous Symbol]                       0x00002cb0   Section        0  usart_v2m-mps2.o(.text.__NVIC_DisableIRQ)
    __NVIC_EnableIRQ                         0x00002ce9   Thumb Code    48  usart_v2m-mps2.o(.text.__NVIC_EnableIRQ)
    [Anonymous Symbol]                       0x00002ce8   Section        0  usart_v2m-mps2.o(.text.__NVIC_EnableIRQ)
    [Anonymous Symbol]                       0x00002d18   Section        0  retarget_io.o(.text._sys_close)
    [Anonymous Symbol]                       0x00002d64   Section        0  retarget_io.o(.text._sys_flen)
    [Anonymous Symbol]                       0x00002dac   Section        0  retarget_io.o(.text._sys_istty)
    [Anonymous Symbol]                       0x00002df4   Section        0  retarget_io.o(.text._sys_open)
    [Anonymous Symbol]                       0x00002e78   Section        0  retarget_io.o(.text._sys_seek)
    [Anonymous Symbol]                       0x00002ecc   Section        0  retarget_io.o(.text._sys_write)
    [Anonymous Symbol]                       0x00002f44   Section        0  task2.o(.text.main)
    [Anonymous Symbol]                       0x00002f88   Section        0  task2.o(.text.vTaskStart)
    CL$$btod_d2e                             0x00002fa6   Section       62  btod.o(CL$$btod_d2e)
    CL$$btod_d2e_denorm_low                  0x00002fe4   Section       70  btod.o(CL$$btod_d2e_denorm_low)
    CL$$btod_d2e_norm_op1                    0x0000302a   Section       96  btod.o(CL$$btod_d2e_norm_op1)
    CL$$btod_div_common                      0x0000308c   Section      824  btod.o(CL$$btod_div_common)
    CL$$btod_e2e                             0x000033c4   Section      220  btod.o(CL$$btod_e2e)
    CL$$btod_ediv                            0x000034a0   Section       42  btod.o(CL$$btod_ediv)
    CL$$btod_emul                            0x000034ca   Section       42  btod.o(CL$$btod_emul)
    CL$$btod_mult_common                     0x000034f4   Section      580  btod.o(CL$$btod_mult_common)
    i.__ARM_fpclassify                       0x00003738   Section        0  fpclassify.o(i.__ARM_fpclassify)
    i._is_digit                              0x00003768   Section        0  __printf_wp.o(i._is_digit)
    i.fputc                                  0x00003776   Section        0  fputc.o(i.fputc)
    locale$$code                             0x00003794   Section       44  lc_numeric_c.o(locale$$code)
    locale$$code                             0x000037c0   Section       44  lc_ctype_c.o(locale$$code)
    prvAddNewTaskToReadyList                 0x000037ed   Thumb Code   200  tasks.o(privileged_functions)
    privileged_functions                     0x000037ec   Section        0  tasks.o(privileged_functions)
    prvInitialiseNewTask                     0x000038b5   Thumb Code   194  tasks.o(privileged_functions)
    prvAddCurrentTaskToDelayedList           0x00003c5d   Thumb Code   110  tasks.o(privileged_functions)
    prvTaskIsTaskSuspended                   0x00004001   Thumb Code    58  tasks.o(privileged_functions)
    prvSearchForNameWithinSingleList         0x000041eb   Thumb Code    88  tasks.o(privileged_functions)
    prvListTasksWithinSingleList             0x0000432b   Thumb Code    84  tasks.o(privileged_functions)
    prvTaskCheckFreeStackSpace               0x00004cf3   Thumb Code    20  tasks.o(privileged_functions)
    prvInsertTimerInActiveList               0x00004d0d   Thumb Code    52  timers.o(privileged_functions)
    privileged_functions                     0x00004d0c   Section        0  timers.o(privileged_functions)
    prvProcessReceivedCommands               0x00004d99   Thumb Code   178  timers.o(privileged_functions)
    prvTimerTask                             0x00004e4b   Thumb Code    34  timers.o(privileged_functions)
    prvCheckForValidListAndQueue             0x00004e6d   Thumb Code    66  timers.o(privileged_functions)
    prvSampleTimeNow                         0x0000500f   Thumb Code    36  timers.o(privileged_functions)
    prvProcessTimerOrBlockTask               0x00005033   Thumb Code   172  timers.o(privileged_functions)
    prvSwitchTimerLists                      0x000050df   Thumb Code   138  timers.o(privileged_functions)
    privileged_functions                     0x00005168   Section        0  heap_4.o(privileged_functions)
    $v0                                      0x000052a4   Number         0  port.o(privileged_functions)
    privileged_functions                     0x000052a4   Section      236  port.o(privileged_functions)
    privileged_functions                     0x00005390   Section        0  port.o(privileged_functions)
    __tagsym$$used                           0x000053c3   Number         0  port.o(privileged_functions)
    prvGetMPURegionSizeSetting               0x000055bf   Thumb Code    20  port.o(privileged_functions)
    prvSetupMPU                              0x000055d3   Thumb Code   140  port.o(privileged_functions)
    privileged_functions                     0x000056ac   Section        0  queue.o(privileged_functions)
    prvCopyDataToQueue                       0x00005787   Thumb Code   106  queue.o(privileged_functions)
    prvNotifyQueueSetContainer               0x000057f1   Thumb Code   108  queue.o(privileged_functions)
    prvUnlockQueue                           0x0000585d   Thumb Code   120  queue.o(privileged_functions)
    prvCopyDataFromQueue                     0x00005e49   Thumb Code    38  queue.o(privileged_functions)
    prvIsQueueEmpty                          0x000063c9   Thumb Code    26  queue.o(privileged_functions)
    $v0                                      0x000063ec   Number         0  fpinit.o(x$fpl$fpinit)
    x$fpl$fpinit                             0x000063ec   Section       26  fpinit.o(x$fpl$fpinit)
    $v0                                      0x00006406   Number         0  printf1.o(x$fpl$printf1)
    x$fpl$printf1                            0x00006406   Section        4  printf1.o(x$fpl$printf1)
    $v0                                      0x0000640a   Number         0  printf2.o(x$fpl$printf2)
    x$fpl$printf2                            0x0000640a   Section        4  printf2.o(x$fpl$printf2)
    maptable                                 0x0000640e   Data          17  __printf_flags_ss_wp.o(.constdata)
    .constdata                               0x0000640e   Section       17  __printf_flags_ss_wp.o(.constdata)
    x$fpl$usenofp                            0x0000640e   Section        0  usenofp.o(x$fpl$usenofp)
    initial_mbstate                          0x00006420   Data           8  _printf_wctomb.o(.constdata)
    .constdata                               0x00006420   Section        8  _printf_wctomb.o(.constdata)
    uc_hextab                                0x00006428   Data          20  _printf_hex_int_ll_ptr.o(.constdata)
    .constdata                               0x00006428   Section       40  _printf_hex_int_ll_ptr.o(.constdata)
    lc_hextab                                0x0000643c   Data          20  _printf_hex_int_ll_ptr.o(.constdata)
    lc_hextab                                0x00006450   Data          19  _printf_fp_hex.o(.constdata)
    .constdata                               0x00006450   Section       38  _printf_fp_hex.o(.constdata)
    uc_hextab                                0x00006463   Data          19  _printf_fp_hex.o(.constdata)
    tenpwrs_x                                0x00006478   Data          60  bigflt0.o(.constdata)
    .constdata                               0x00006478   Section      148  bigflt0.o(.constdata)
    tenpwrs_i                                0x000064b4   Data          64  bigflt0.o(.constdata)
    USART0_Resources                         0x00006544   Data          28  usart_v2m-mps2.o(.rodata.USART0_Resources)
    [Anonymous Symbol]                       0x00006544   Section        0  usart_v2m-mps2.o(.rodata.USART0_Resources)
    .L.str                                   0x00006577   Data          19  task2.o(.rodata.str1.1)
    [Anonymous Symbol]                       0x00006577   Section        0  task2.o(.rodata.str1.1)
    .L.str.1                                 0x0000658a   Data           6  task2.o(.rodata.str1.1)
    .L.str                                   0x00006590   Data           7  retarget_io.o(.rodata.str1.1)
    [Anonymous Symbol]                       0x00006590   Section        0  retarget_io.o(.rodata.str1.1)
    .L.str.2                                 0x00006597   Data           8  retarget_io.o(.rodata.str1.1)
    .L.str.1                                 0x0000659f   Data           8  retarget_io.o(.rodata.str1.1)
    usart_driver_version                     0x000065a8   Data           4  usart_v2m-mps2.o(.rodata.usart_driver_version)
    [Anonymous Symbol]                       0x000065a8   Section        0  usart_v2m-mps2.o(.rodata.usart_driver_version)
    locale$$data                             0x000065cc   Section       28  lc_numeric_c.o(locale$$data)
    __lcnum_c_name                           0x000065d0   Data           2  lc_numeric_c.o(locale$$data)
    __lcnum_c_start                          0x000065d8   Data           0  lc_numeric_c.o(locale$$data)
    __lcnum_c_point                          0x000065e4   Data           0  lc_numeric_c.o(locale$$data)
    __lcnum_c_thousands                      0x000065e6   Data           0  lc_numeric_c.o(locale$$data)
    __lcnum_c_grouping                       0x000065e7   Data           0  lc_numeric_c.o(locale$$data)
    __lcnum_c_end                            0x000065e8   Data           0  lc_numeric_c.o(locale$$data)
    locale$$data                             0x000065e8   Section      272  lc_ctype_c.o(locale$$data)
    __lcctype_c_name                         0x000065ec   Data           2  lc_ctype_c.o(locale$$data)
    __lcctype_c_start                        0x000065f4   Data           0  lc_ctype_c.o(locale$$data)
    __lcctype_c_end                          0x000066f8   Data           0  lc_ctype_c.o(locale$$data)
    .data                                    0x20000000   Section        4  task2a.o(.data)
    .data                                    0x20000004   Section        4  task2a.o(.data)
    .data                                    0x20000008   Section        4  task2a.o(.data)
    .data                                    0x2000000c   Section        4  task2a.o(.data)
    .data                                    0x20000010   Section        4  task2a.o(.data)
    .data                                    0x20000014   Section        4  task2a.o(.data)
    .data                                    0x20000018   Section        4  task2a.o(.data)
    .data                                    0x2000001c   Section        4  tasks.o(.data)
    pxEnd                                    0x20000020   Data           4  heap_4.o(.data)
    .data                                    0x20000020   Section       24  heap_4.o(.data)
    xFreeBytesRemaining                      0x20000024   Data           4  heap_4.o(.data)
    xMinimumEverFreeBytesRemaining           0x20000028   Data           4  heap_4.o(.data)
    xBlockAllocatedBit                       0x2000002c   Data           4  heap_4.o(.data)
    xStart                                   0x20000030   Data           8  heap_4.o(.data)
    ucMaxSysCallPriority                     0x20000038   Data           1  port.o(.data)
    .data                                    0x20000038   Section       20  port.o(.data)
    uxCriticalNesting                        0x2000003c   Data           4  port.o(.data)
    ulMaxPRIGROUPValue                       0x20000040   Data           4  port.o(.data)
    .data                                    0x2000004c   Section        4  stdio_streams.o(.data)
    .data                                    0x20000050   Section        4  stdio_streams.o(.data)
    .data                                    0x20000054   Section        4  stdio_streams.o(.data)
    USART0_pin_rx                            0x2000005c   Data           8  usart_v2m-mps2.o(.data.USART0_pin_rx)
    [Anonymous Symbol]                       0x2000005c   Section        0  usart_v2m-mps2.o(.data.USART0_pin_rx)
    USART0_pin_tx                            0x20000064   Data           8  usart_v2m-mps2.o(.data.USART0_pin_tx)
    [Anonymous Symbol]                       0x20000064   Section        0  usart_v2m-mps2.o(.data.USART0_pin_tx)
    privileged_data                          0x2000006c   Section      260  tasks.o(privileged_data)
    uxDeletedTasksWaitingCleanUp             0x20000070   Data           4  tasks.o(privileged_data)
    uxCurrentNumberOfTasks                   0x20000074   Data           4  tasks.o(privileged_data)
    xTickCount                               0x20000078   Data           4  tasks.o(privileged_data)
    uxTopReadyPriority                       0x2000007c   Data           4  tasks.o(privileged_data)
    xSchedulerRunning                        0x20000080   Data           4  tasks.o(privileged_data)
    uxPendedTicks                            0x20000084   Data           4  tasks.o(privileged_data)
    xYieldPending                            0x20000088   Data           4  tasks.o(privileged_data)
    xNumOfOverflows                          0x2000008c   Data           4  tasks.o(privileged_data)
    uxTaskNumber                             0x20000090   Data           4  tasks.o(privileged_data)
    xNextTaskUnblockTime                     0x20000094   Data           4  tasks.o(privileged_data)
    xIdleTaskHandle                          0x20000098   Data           4  tasks.o(privileged_data)
    uxSchedulerSuspended                     0x2000009c   Data           4  tasks.o(privileged_data)
    pxDelayedTaskList                        0x200000a0   Data           4  tasks.o(privileged_data)
    pxOverflowDelayedTaskList                0x200000a4   Data           4  tasks.o(privileged_data)
    pxReadyTasksLists                        0x200000a8   Data         100  tasks.o(privileged_data)
    xDelayedTaskList1                        0x2000010c   Data          20  tasks.o(privileged_data)
    xDelayedTaskList2                        0x20000120   Data          20  tasks.o(privileged_data)
    xPendingReadyList                        0x20000134   Data          20  tasks.o(privileged_data)
    xTasksWaitingTermination                 0x20000148   Data          20  tasks.o(privileged_data)
    xSuspendedTaskList                       0x2000015c   Data          20  tasks.o(privileged_data)
    xTimerQueue                              0x20000170   Data           4  timers.o(privileged_data)
    privileged_data                          0x20000170   Section       60  timers.o(privileged_data)
    xTimerTaskHandle                         0x20000174   Data           4  timers.o(privileged_data)
    xLastTime                                0x20000178   Data           4  timers.o(privileged_data)
    pxCurrentTimerList                       0x2000017c   Data           4  timers.o(privileged_data)
    pxOverflowTimerList                      0x20000180   Data           4  timers.o(privileged_data)
    xActiveTimerList1                        0x20000184   Data          20  timers.o(privileged_data)
    xActiveTimerList2                        0x20000198   Data          20  timers.o(privileged_data)
    privileged_data                          0x200001ac   Section       40  queue.o(privileged_data)
    ucHeap                                   0x200001d4   Data        4096  heap_4.o(.bss)
    .bss                                     0x200001d4   Section     4096  heap_4.o(.bss)
    .bss                                     0x200011d4   Section       84  stdio_streams.o(.bss)
    .bss                                     0x20001228   Section       84  stdio_streams.o(.bss)
    .bss                                     0x2000127c   Section       84  stdio_streams.o(.bss)
    .bss                                     0x200012d0   Section       96  libspace.o(.bss)
    USART0_Info                              0x20001330   Data           8  usart_v2m-mps2.o(.bss.USART0_Info)
    [Anonymous Symbol]                       0x20001330   Section        0  usart_v2m-mps2.o(.bss.USART0_Info)
    USART0_TransferInfo                      0x20001338   Data          24  usart_v2m-mps2.o(.bss.USART0_TransferInfo)
    [Anonymous Symbol]                       0x20001338   Section        0  usart_v2m-mps2.o(.bss.USART0_TransferInfo)

    Global Symbols

    Symbol Name                              Value     Ov Type        Size  Object(Section)

    BuildAttributes$$THM_ISAv4$E$P$D$K$B$S$7EM$VFPi3$EXTD16$VFPS$VFMA$PE$A:L22UL41UL21$X:L11$S22US41US21$IEEE1$IW$USESV6$~STKCKD$USESV7$~SHL$OTIME$ROPI$IEEEJ$EBA8$UX$STANDARDLIB$REQ8$PRES8$EABIv2 0x00000000   Number         0  anon$$obj.o ABSOLUTE
    __Vectors                                0x00000000   Data        1024  startup_cmsdk_cm4.o(RESET)
    _printf_flags                            0x00000000   Number         0  printf_stubs.o ABSOLUTE
    _printf_return_value                     0x00000000   Number         0  printf_stubs.o ABSOLUTE
    _printf_sizespec                         0x00000000   Number         0  printf_stubs.o ABSOLUTE
    _printf_widthprec                        0x00000000   Number         0  printf_stubs.o ABSOLUTE
    Image$$ZI$$Limit                          - Undefined Weak Reference
    __ARM_exceptions_init                     - Undefined Weak Reference
    __alloca_initialize                       - Undefined Weak Reference
    __arm_preinit_                            - Undefined Weak Reference
    __arm_relocate_pie_                       - Undefined Weak Reference
    __cpp_initialize__aeabi_                  - Undefined Weak Reference
    __cxa_finalize                            - Undefined Weak Reference
    __sigvec_lookup                           - Undefined Weak Reference
    __user_heap_extent                        - Undefined Weak Reference
    _atexit_init                              - Undefined Weak Reference
    _call_atexit_fns                          - Undefined Weak Reference
    _clock_init                               - Undefined Weak Reference
    _fp_trap_init                             - Undefined Weak Reference
    _fp_trap_shutdown                         - Undefined Weak Reference
    _get_lc_collate                           - Undefined Weak Reference
    _get_lc_monetary                          - Undefined Weak Reference
    _get_lc_time                              - Undefined Weak Reference
    _getenv_init                              - Undefined Weak Reference
    _handle_redirection                       - Undefined Weak Reference
    _mutex_acquire                            - Undefined Weak Reference
    _mutex_free                               - Undefined Weak Reference
    _mutex_release                            - Undefined Weak Reference
    _printf_mbtowc                            - Undefined Weak Reference
    _printf_wc                                - Undefined Weak Reference
    _rand_init                                - Undefined Weak Reference
    _signal_finish                            - Undefined Weak Reference
    _signal_init                              - Undefined Weak Reference
    __main                                   0x00000401   Thumb Code     8  __main.o(!!!main)
    __scatterload                            0x00000409   Thumb Code     0  __scatter.o(!!!scatter)
    __scatterload_rt2                        0x00000409   Thumb Code    44  __scatter.o(!!!scatter)
    __scatterload_rt2_thumb_only             0x00000409   Thumb Code     0  __scatter.o(!!!scatter)
    __scatterload_null                       0x00000417   Thumb Code     0  __scatter.o(!!!scatter)
    __decompress                             0x0000043d   Thumb Code    58  __dczerorl.o(!!dczerorl)
    __decompress0                            0x0000043d   Thumb Code     0  __dczerorl.o(!!dczerorl)
    __scatterload_zeroinit                   0x00000479   Thumb Code    28  __scatter_zi.o(!!handler_zi)
    _printf_n                                0x00000495   Thumb Code     0  _printf_n.o(.ARM.Collect$$_printf_percent$$00000001)
    _printf_percent                          0x00000495   Thumb Code     0  _printf_percent.o(.ARM.Collect$$_printf_percent$$00000000)
    _printf_p                                0x0000049b   Thumb Code     0  _printf_p.o(.ARM.Collect$$_printf_percent$$00000002)
    _printf_f                                0x000004a1   Thumb Code     0  _printf_f.o(.ARM.Collect$$_printf_percent$$00000003)
    _printf_e                                0x000004a7   Thumb Code     0  _printf_e.o(.ARM.Collect$$_printf_percent$$00000004)
    _printf_g                                0x000004ad   Thumb Code     0  _printf_g.o(.ARM.Collect$$_printf_percent$$00000005)
    _printf_a                                0x000004b3   Thumb Code     0  _printf_a.o(.ARM.Collect$$_printf_percent$$00000006)
    _printf_ll                               0x000004b9   Thumb Code     0  _printf_ll.o(.ARM.Collect$$_printf_percent$$00000007)
    _printf_i                                0x000004c3   Thumb Code     0  _printf_i.o(.ARM.Collect$$_printf_percent$$00000008)
    _printf_d                                0x000004c9   Thumb Code     0  _printf_d.o(.ARM.Collect$$_printf_percent$$00000009)
    _printf_u                                0x000004cf   Thumb Code     0  _printf_u.o(.ARM.Collect$$_printf_percent$$0000000A)
    _printf_o                                0x000004d5   Thumb Code     0  _printf_o.o(.ARM.Collect$$_printf_percent$$0000000B)
    _printf_x                                0x000004db   Thumb Code     0  _printf_x.o(.ARM.Collect$$_printf_percent$$0000000C)
    _printf_lli                              0x000004e1   Thumb Code     0  _printf_lli.o(.ARM.Collect$$_printf_percent$$0000000D)
    _printf_lld                              0x000004e7   Thumb Code     0  _printf_lld.o(.ARM.Collect$$_printf_percent$$0000000E)
    _printf_llu                              0x000004ed   Thumb Code     0  _printf_llu.o(.ARM.Collect$$_printf_percent$$0000000F)
    _printf_llo                              0x000004f3   Thumb Code     0  _printf_llo.o(.ARM.Collect$$_printf_percent$$00000010)
    _printf_llx                              0x000004f9   Thumb Code     0  _printf_llx.o(.ARM.Collect$$_printf_percent$$00000011)
    _printf_l                                0x000004ff   Thumb Code     0  _printf_l.o(.ARM.Collect$$_printf_percent$$00000012)
    _printf_c                                0x00000509   Thumb Code     0  _printf_c.o(.ARM.Collect$$_printf_percent$$00000013)
    _printf_s                                0x0000050f   Thumb Code     0  _printf_s.o(.ARM.Collect$$_printf_percent$$00000014)
    _printf_lc                               0x00000515   Thumb Code     0  _printf_lc.o(.ARM.Collect$$_printf_percent$$00000015)
    _printf_ls                               0x0000051b   Thumb Code     0  _printf_ls.o(.ARM.Collect$$_printf_percent$$00000016)
    _printf_percent_end                      0x00000521   Thumb Code     0  _printf_percent_end.o(.ARM.Collect$$_printf_percent$$00000017)
    __rt_lib_init                            0x00000525   Thumb Code     0  libinit.o(.ARM.Collect$$libinit$$00000000)
    __rt_lib_init_fp_1                       0x00000527   Thumb Code     0  libinit2.o(.ARM.Collect$$libinit$$00000001)
    __rt_lib_init_heap_2                     0x0000052b   Thumb Code     0  libinit5.o(.ARM.Collect$$libinit$$0000000A)
    __rt_lib_init_preinit_1                  0x0000052b   Thumb Code     0  libinit2.o(.ARM.Collect$$libinit$$00000006)
    __rt_lib_init_relocate_pie_1             0x0000052b   Thumb Code     0  libinit2.o(.ARM.Collect$$libinit$$00000004)
    __rt_lib_init_heap_1                     0x00000533   Thumb Code     0  libinit2.o(.ARM.Collect$$libinit$$0000000C)
    __rt_lib_init_lc_common                  0x00000533   Thumb Code     0  libinit2.o(.ARM.Collect$$libinit$$00000011)
    __rt_lib_init_rand_1                     0x00000533   Thumb Code     0  libinit2.o(.ARM.Collect$$libinit$$00000010)
    __rt_lib_init_user_alloc_1               0x00000533   Thumb Code     0  libinit2.o(.ARM.Collect$$libinit$$0000000E)
    __rt_lib_init_lc_collate_1               0x00000539   Thumb Code     0  libinit2.o(.ARM.Collect$$libinit$$00000013)
    __rt_lib_init_lc_ctype_2                 0x00000539   Thumb Code     0  libinit2.o(.ARM.Collect$$libinit$$00000014)
    __rt_lib_init_lc_ctype_1                 0x00000545   Thumb Code     0  libinit2.o(.ARM.Collect$$libinit$$00000015)
    __rt_lib_init_lc_monetary_1              0x00000545   Thumb Code     0  libinit2.o(.ARM.Collect$$libinit$$00000017)
    __rt_lib_init_lc_numeric_2               0x00000545   Thumb Code     0  libinit2.o(.ARM.Collect$$libinit$$00000018)
    __rt_lib_init_atexit_1                   0x0000054f   Thumb Code     0  libinit2.o(.ARM.Collect$$libinit$$0000001D)
    __rt_lib_init_clock_1                    0x0000054f   Thumb Code     0  libinit2.o(.ARM.Collect$$libinit$$00000023)
    __rt_lib_init_fp_trap_1                  0x0000054f   Thumb Code     0  libinit2.o(.ARM.Collect$$libinit$$00000021)
    __rt_lib_init_getenv_1                   0x0000054f   Thumb Code     0  libinit2.o(.ARM.Collect$$libinit$$00000025)
    __rt_lib_init_lc_numeric_1               0x0000054f   Thumb Code     0  libinit2.o(.ARM.Collect$$libinit$$00000019)
    __rt_lib_init_lc_time_1                  0x0000054f   Thumb Code     0  libinit2.o(.ARM.Collect$$libinit$$0000001B)
    __rt_lib_init_signal_1                   0x0000054f   Thumb Code     0  libinit2.o(.ARM.Collect$$libinit$$0000001F)
    __rt_lib_init_stdio_2                    0x0000054f   Thumb Code     0  libinit2.o(.ARM.Collect$$libinit$$00000026)
    __rt_lib_init_alloca_1                   0x00000553   Thumb Code     0  libinit2.o(.ARM.Collect$$libinit$$00000030)
    __rt_lib_init_argv_1                     0x00000553   Thumb Code     0  libinit2.o(.ARM.Collect$$libinit$$0000002E)
    __rt_lib_init_cpp_1                      0x00000553   Thumb Code     0  libinit2.o(.ARM.Collect$$libinit$$00000034)
    __rt_lib_init_exceptions_1               0x00000553   Thumb Code     0  libinit2.o(.ARM.Collect$$libinit$$00000032)
    __rt_lib_init_return                     0x00000553   Thumb Code     0  libinit2.o(.ARM.Collect$$libinit$$00000035)
    __rt_lib_init_stdio_1                    0x00000553   Thumb Code     0  libinit2.o(.ARM.Collect$$libinit$$00000027)
    __rt_lib_shutdown                        0x0000055d   Thumb Code     0  libshutdown.o(.ARM.Collect$$libshutdown$$00000000)
    __rt_lib_shutdown_cpp_1                  0x0000055f   Thumb Code     0  libshutdown2.o(.ARM.Collect$$libshutdown$$00000002)
    __rt_lib_shutdown_stdio_2                0x0000055f   Thumb Code     0  libshutdown2.o(.ARM.Collect$$libshutdown$$00000003)
    __rt_lib_shutdown_fp_trap_1              0x00000563   Thumb Code     0  libshutdown2.o(.ARM.Collect$$libshutdown$$00000007)
    __rt_lib_shutdown_heap_1                 0x00000563   Thumb Code     0  libshutdown2.o(.ARM.Collect$$libshutdown$$0000000F)
    __rt_lib_shutdown_return                 0x00000563   Thumb Code     0  libshutdown2.o(.ARM.Collect$$libshutdown$$00000010)
    __rt_lib_shutdown_signal_1               0x00000563   Thumb Code     0  libshutdown2.o(.ARM.Collect$$libshutdown$$0000000A)
    __rt_lib_shutdown_stdio_1                0x00000563   Thumb Code     0  libshutdown2.o(.ARM.Collect$$libshutdown$$00000004)
    __rt_lib_shutdown_user_alloc_1           0x00000563   Thumb Code     0  libshutdown2.o(.ARM.Collect$$libshutdown$$0000000C)
    __rt_entry                               0x00000565   Thumb Code     0  __rtentry.o(.ARM.Collect$$rtentry$$00000000)
    __rt_entry_presh_1                       0x00000565   Thumb Code     0  __rtentry2.o(.ARM.Collect$$rtentry$$00000002)
    __rt_entry_sh                            0x00000565   Thumb Code     0  __rtentry7.o(.ARM.Collect$$rtentry$$00000007)
    __rt_entry_li                            0x00000569   Thumb Code     0  __rtentry2.o(.ARM.Collect$$rtentry$$0000000A)
    __rt_entry_postsh_1                      0x00000569   Thumb Code     0  __rtentry2.o(.ARM.Collect$$rtentry$$00000009)
    __rt_entry_main                          0x0000056d   Thumb Code     0  __rtentry2.o(.ARM.Collect$$rtentry$$0000000D)
    __rt_entry_postli_1                      0x0000056d   Thumb Code     0  __rtentry2.o(.ARM.Collect$$rtentry$$0000000C)
    __rt_exit                                0x00000579   Thumb Code     0  rtexit.o(.ARM.Collect$$rtexit$$00000000)
    __rt_exit_ls                             0x0000057b   Thumb Code     0  rtexit2.o(.ARM.Collect$$rtexit$$00000003)
    __rt_exit_prels_1                        0x0000057b   Thumb Code     0  rtexit2.o(.ARM.Collect$$rtexit$$00000002)
    __rt_exit_exit                           0x0000057f   Thumb Code     0  rtexit2.o(.ARM.Collect$$rtexit$$00000004)
    vPortSwitchToUserMode                    0x00000585   Thumb Code    14  port.o(.emb_text)
    __asm___6_port_c_39a90d8d__vPortEnableVFP 0x00000593   Thumb Code    18  port.o(.emb_text)
    xPortRaisePrivilege                      0x000005a9   Thumb Code    18  port.o(.emb_text)
    __asm___6_port_c_39a90d8d__prvPortGetIPSR 0x000005bb   Thumb Code     6  port.o(.emb_text)
    stdout_init                              0x000005c1   Thumb Code    52  stdout_usart.o(.text)
    stdout_putchar                           0x000005f5   Thumb Code    30  stdout_usart.o(.text)
    MemManage_Handler                        0x00000619   Thumb Code     8  task2a.o(.text)
    prvSetupHardware                         0x00000621   Thumb Code    10  task2a.o(.text)
    AttackTest                               0x0000062b   Thumb Code    26  task2a.o(.text)
    StartFreeRTOS                            0x00000645   Thumb Code    12  task2a.o(.text)
    xTaskNotifyStateClear                    0x000006a7   Thumb Code    46  tasks.o(.text)
    vListInitialise                          0x000006f5   Thumb Code    22  list.o(.text)
    vListInitialiseItem                      0x0000070b   Thumb Code     6  list.o(.text)
    vListInsertEnd                           0x00000711   Thumb Code    24  list.o(.text)
    vListInsert                              0x00000729   Thumb Code    48  list.o(.text)
    uxListRemove                             0x00000759   Thumb Code    38  list.o(.text)
    vPortEnterCritical                       0x00000815   Thumb Code    46  port.o(.text)
    vPortExitCritical                        0x00000843   Thumb Code    60  port.o(.text)
    vPortValidateInterruptPriority           0x0000087f   Thumb Code    74  port.o(.text)
    printf                                   0x000008d1   Thumb Code    20  printf.o(.text)
    __2printf                                0x000008e9   Thumb Code    20  __2printf.o(.text)
    _printf_int_dec                          0x00000901   Thumb Code   104  _printf_dec.o(.text)
    __printf                                 0x00000979   Thumb Code   388  __printf_flags_ss_wp.o(.text)
    strlen                                   0x00000b01   Thumb Code    62  strlen.o(.text)
    __aeabi_memcpy                           0x00000b3f   Thumb Code     0  rt_memcpy_v6.o(.text)
    __rt_memcpy                              0x00000b3f   Thumb Code   138  rt_memcpy_v6.o(.text)
    _memcpy_lastbytes                        0x00000ba5   Thumb Code     0  rt_memcpy_v6.o(.text)
    __aeabi_memset                           0x00000bc9   Thumb Code    16  aeabi_memset.o(.text)
    strcmp                                   0x00000bd9   Thumb Code   124  strcmpv7em.o(.text)
    _printf_pre_padding                      0x00000c55   Thumb Code    44  _printf_pad.o(.text)
    _printf_post_padding                     0x00000c81   Thumb Code    34  _printf_pad.o(.text)
    _printf_truncate_signed                  0x00000ca3   Thumb Code    18  _printf_truncate.o(.text)
    _printf_truncate_unsigned                0x00000cb5   Thumb Code    18  _printf_truncate.o(.text)
    _printf_str                              0x00000cc7   Thumb Code    82  _printf_str.o(.text)
    _printf_int_common                       0x00000d19   Thumb Code   178  _printf_intcommon.o(.text)
    _printf_charcount                        0x00000dcb   Thumb Code    40  _printf_charcount.o(.text)
    _printf_char_file                        0x00000df5   Thumb Code    32  _printf_char_file.o(.text)
    _printf_wctomb                           0x00000e19   Thumb Code   182  _printf_wctomb.o(.text)
    _printf_longlong_dec                     0x00000ed5   Thumb Code   108  _printf_longlong_dec.o(.text)
    _printf_longlong_oct                     0x00000f51   Thumb Code    68  _printf_oct_int_ll.o(.text)
    _printf_int_oct                          0x00000f95   Thumb Code    24  _printf_oct_int_ll.o(.text)
    _printf_ll_oct                           0x00000fad   Thumb Code    12  _printf_oct_int_ll.o(.text)
    _printf_longlong_hex                     0x00000fc1   Thumb Code    86  _printf_hex_int_ll_ptr.o(.text)
    _printf_int_hex                          0x00001017   Thumb Code    28  _printf_hex_int_ll_ptr.o(.text)
    _printf_ll_hex                           0x00001033   Thumb Code    12  _printf_hex_int_ll_ptr.o(.text)
    _printf_hex_ptr                          0x0000103f   Thumb Code    18  _printf_hex_int_ll_ptr.o(.text)
    __aeabi_memcpy4                          0x00001055   Thumb Code     0  rt_memcpy_w.o(.text)
    __aeabi_memcpy8                          0x00001055   Thumb Code     0  rt_memcpy_w.o(.text)
    __rt_memcpy_w                            0x00001055   Thumb Code   100  rt_memcpy_w.o(.text)
    _memcpy_lastbytes_aligned                0x0000109d   Thumb Code     0  rt_memcpy_w.o(.text)
    __aeabi_memclr                           0x000010b9   Thumb Code     0  rt_memclr.o(.text)
    __rt_memclr                              0x000010b9   Thumb Code     0  rt_memclr.o(.text)
    _memset                                  0x000010bd   Thumb Code    64  rt_memclr.o(.text)
    _ll_udiv10                               0x000010fd   Thumb Code   138  lludiv10.o(.text)
    _printf_fp_dec_real                      0x00001337   Thumb Code   620  _printf_fp_dec.o(.text)
    _printf_fp_hex_real                      0x000015a5   Thumb Code   756  _printf_fp_hex.o(.text)
    _printf_char_common                      0x000018ab   Thumb Code    32  _printf_char_common.o(.text)
    _printf_cs_common                        0x000018d1   Thumb Code    20  _printf_char.o(.text)
    _printf_char                             0x000018e5   Thumb Code    16  _printf_char.o(.text)
    _printf_string                           0x000018f5   Thumb Code     8  _printf_char.o(.text)
    _printf_lcs_common                       0x000018fd   Thumb Code    20  _printf_wchar.o(.text)
    _printf_wchar                            0x00001911   Thumb Code    16  _printf_wchar.o(.text)
    _printf_wstring                          0x00001921   Thumb Code     8  _printf_wchar.o(.text)
    ferror                                   0x00001929   Thumb Code     8  ferror.o(.text)
    _initio                                  0x00001931   Thumb Code   210  initio.o(.text)
    _terminateio                             0x00001a03   Thumb Code    56  initio.o(.text)
    _c16rtomb                                0x00001a69   Thumb Code    72  _c16rtomb.o(.text)
    _wcrtomb                                 0x00001a69   Thumb Code     0  _c16rtomb.o(.text)
    __aeabi_memclr4                          0x00001ab1   Thumb Code     0  rt_memclr_w.o(.text)
    __aeabi_memclr8                          0x00001ab1   Thumb Code     0  rt_memclr_w.o(.text)
    __rt_memclr_w                            0x00001ab1   Thumb Code     0  rt_memclr_w.o(.text)
    _memset_w                                0x00001ab5   Thumb Code    74  rt_memclr_w.o(.text)
    __rt_ctype_table                         0x00001b01   Thumb Code    16  rt_ctype_table.o(.text)
    __rt_locale                              0x00001b11   Thumb Code     8  rt_locale_intlibspace.o(.text)
    free                                     0x00001b19   Thumb Code    78  h1_free.o(.text)
    _printf_fp_infnan                        0x00001b69   Thumb Code   112  _printf_fp_infnan.o(.text)
    _btod_etento                             0x00001be9   Thumb Code   224  bigflt0.o(.text)
    __flsbuf                                 0x00001ccd   Thumb Code   482  flsbuf.o(.text)
    __flsbuf_byte                            0x00001ccd   Thumb Code     0  flsbuf.o(.text)
    __flsbuf_wide                            0x00001ccd   Thumb Code     0  flsbuf.o(.text)
    setvbuf                                  0x00001eaf   Thumb Code    70  setvbuf.o(.text)
    freopen                                  0x00001ef5   Thumb Code   160  fopen.o(.text)
    fopen                                    0x00001f95   Thumb Code    74  fopen.o(.text)
    _fclose_internal                         0x00001fe5   Thumb Code    76  fclose.o(.text)
    fclose                                   0x00001fe5   Thumb Code     0  fclose.o(.text)
    exit                                     0x00002031   Thumb Code    18  exit.o(.text)
    __rt_SIGRTRED                            0x00002043   Thumb Code    14  defsig_rtred_outer.o(.text)
    __rt_heap_descriptor                     0x00002051   Thumb Code     8  rt_heap_descriptor_intlibspace.o(.text)
    __use_no_heap                            0x00002059   Thumb Code     2  hguard.o(.text)
    __heap$guard                             0x0000205b   Thumb Code     2  hguard.o(.text)
    _terminate_user_alloc                    0x0000205d   Thumb Code     2  init_alloc.o(.text)
    _init_user_alloc                         0x0000205f   Thumb Code     2  init_alloc.o(.text)
    __Heap_Full                              0x00002061   Thumb Code    34  init_alloc.o(.text)
    __Heap_Broken                            0x00002083   Thumb Code     6  init_alloc.o(.text)
    _init_alloc                              0x00002089   Thumb Code    94  init_alloc.o(.text)
    malloc                                   0x000020e7   Thumb Code    94  h1_alloc.o(.text)
    _fseek                                   0x00002145   Thumb Code   242  fseek.o(.text)
    fseek                                    0x00002145   Thumb Code     0  fseek.o(.text)
    _seterr                                  0x0000223d   Thumb Code    20  stdio.o(.text)
    _writebuf                                0x00002251   Thumb Code    84  stdio.o(.text)
    _fflush                                  0x000022a5   Thumb Code    70  stdio.o(.text)
    _deferredlazyseek                        0x000022eb   Thumb Code    60  stdio.o(.text)
    __sig_exit                               0x0000232d   Thumb Code    10  defsig_exit.o(.text)
    __rt_SIGRTRED_inner                      0x00002339   Thumb Code    14  defsig_rtred_inner.o(.text)
    _sys_exit                                0x0000236d   Thumb Code     8  sys_exit.o(.text)
    __I$use$semihosting                      0x00002379   Thumb Code     0  use_no_semi.o(.text)
    __use_no_semihosting_swi                 0x00002379   Thumb Code     2  use_no_semi.o(.text)
    __Heap_Initialize                        0x0000237b   Thumb Code    10  h1_init.o(.text)
    __semihosting_library_function           0x0000237b   Thumb Code     0  indicate_semi.o(.text)
    _maybe_terminate_alloc                   0x0000237b   Thumb Code     0  maybetermalloc1.o(.text)
    __Heap_DescSize                          0x00002385   Thumb Code     4  h1_init.o(.text)
    __Heap_ProvideMemory                     0x00002389   Thumb Code    52  h1_extend.o(.text)
    _ftell_internal                          0x000023bd   Thumb Code    66  ftell.o(.text)
    ftell                                    0x000023bd   Thumb Code     0  ftell.o(.text)
    __default_signal_display                 0x000023ff   Thumb Code    50  defsig_general.o(.text)
    __rt_SIGRTMEM                            0x00002431   Thumb Code    14  defsig_rtmem_outer.o(.text)
    _ttywrch                                 0x0000243f   Thumb Code    14  sys_wrch.o(.text)
    __aeabi_errno_addr                       0x0000244d   Thumb Code     8  rt_errno_addr_intlibspace.o(.text)
    __errno$intlibspace                      0x0000244d   Thumb Code     0  rt_errno_addr_intlibspace.o(.text)
    __rt_errno_addr$intlibspace              0x0000244d   Thumb Code     0  rt_errno_addr_intlibspace.o(.text)
    __rt_SIGRTMEM_inner                      0x00002455   Thumb Code    22  defsig_rtmem_inner.o(.text)
    BusFault_Handler                         0x000024d5   Thumb Code     4  startup_cmsdk_cm4.o(.text.Default_Handler)
    DUALTIMER_Handler                        0x000024d5   Thumb Code     4  startup_cmsdk_cm4.o(.text.Default_Handler)
    DebugMon_Handler                         0x000024d5   Thumb Code     4  startup_cmsdk_cm4.o(.text.Default_Handler)
    Default_Handler                          0x000024d5   Thumb Code     4  startup_cmsdk_cm4.o(.text.Default_Handler)
    ETHERNET_Handler                         0x000024d5   Thumb Code     4  startup_cmsdk_cm4.o(.text.Default_Handler)
    GPIO0ALL_Handler                         0x000024d5   Thumb Code     4  startup_cmsdk_cm4.o(.text.Default_Handler)
    GPIO0_0_Handler                          0x000024d5   Thumb Code     4  startup_cmsdk_cm4.o(.text.Default_Handler)
    GPIO0_1_Handler                          0x000024d5   Thumb Code     4  startup_cmsdk_cm4.o(.text.Default_Handler)
    GPIO0_2_Handler                          0x000024d5   Thumb Code     4  startup_cmsdk_cm4.o(.text.Default_Handler)
    GPIO0_3_Handler                          0x000024d5   Thumb Code     4  startup_cmsdk_cm4.o(.text.Default_Handler)
    GPIO0_4_Handler                          0x000024d5   Thumb Code     4  startup_cmsdk_cm4.o(.text.Default_Handler)
    GPIO0_5_Handler                          0x000024d5   Thumb Code     4  startup_cmsdk_cm4.o(.text.Default_Handler)
    GPIO0_6_Handler                          0x000024d5   Thumb Code     4  startup_cmsdk_cm4.o(.text.Default_Handler)
    GPIO0_7_Handler                          0x000024d5   Thumb Code     4  startup_cmsdk_cm4.o(.text.Default_Handler)
    GPIO1ALL_Handler                         0x000024d5   Thumb Code     4  startup_cmsdk_cm4.o(.text.Default_Handler)
    GPIO2_Handler                            0x000024d5   Thumb Code     4  startup_cmsdk_cm4.o(.text.Default_Handler)
    GPIO3_Handler                            0x000024d5   Thumb Code     4  startup_cmsdk_cm4.o(.text.Default_Handler)
    I2S_Handler                              0x000024d5   Thumb Code     4  startup_cmsdk_cm4.o(.text.Default_Handler)
    NMI_Handler                              0x000024d5   Thumb Code     4  startup_cmsdk_cm4.o(.text.Default_Handler)
    SPI_0_1_Handler                          0x000024d5   Thumb Code     4  startup_cmsdk_cm4.o(.text.Default_Handler)
    SPI_2_Handler                            0x000024d5   Thumb Code     4  startup_cmsdk_cm4.o(.text.Default_Handler)
    SPI_3_4_Handler                          0x000024d5   Thumb Code     4  startup_cmsdk_cm4.o(.text.Default_Handler)
    TIMER0_Handler                           0x000024d5   Thumb Code     4  startup_cmsdk_cm4.o(.text.Default_Handler)
    TIMER1_Handler                           0x000024d5   Thumb Code     4  startup_cmsdk_cm4.o(.text.Default_Handler)
    TOUCHSCREEN_Handler                      0x000024d5   Thumb Code     4  startup_cmsdk_cm4.o(.text.Default_Handler)
    UART1RX_Handler                          0x000024d5   Thumb Code     4  startup_cmsdk_cm4.o(.text.Default_Handler)
    UART1TX_Handler                          0x000024d5   Thumb Code     4  startup_cmsdk_cm4.o(.text.Default_Handler)
    UART2RX_Handler                          0x000024d5   Thumb Code     4  startup_cmsdk_cm4.o(.text.Default_Handler)
    UART2TX_Handler                          0x000024d5   Thumb Code     4  startup_cmsdk_cm4.o(.text.Default_Handler)
    UART3RX_Handler                          0x000024d5   Thumb Code     4  startup_cmsdk_cm4.o(.text.Default_Handler)
    UART3TX_Handler                          0x000024d5   Thumb Code     4  startup_cmsdk_cm4.o(.text.Default_Handler)
    UART4RX_Handler                          0x000024d5   Thumb Code     4  startup_cmsdk_cm4.o(.text.Default_Handler)
    UART4TX_Handler                          0x000024d5   Thumb Code     4  startup_cmsdk_cm4.o(.text.Default_Handler)
    UART_0_1_2_OVF_Handler                   0x000024d5   Thumb Code     4  startup_cmsdk_cm4.o(.text.Default_Handler)
    UsageFault_Handler                       0x000024d5   Thumb Code     4  startup_cmsdk_cm4.o(.text.Default_Handler)
    HardFault_Handler                        0x000024d9   Thumb Code     4  startup_cmsdk_cm4.o(.text.HardFault_Handler)
    Reset_Handler                            0x000024dd   Thumb Code     8  startup_cmsdk_cm4.o(.text.Reset_Handler)
    SystemInit                               0x000024e5   Thumb Code    54  system_cmsdk_cm4.o(.text.SystemInit)
    UART0RX_Handler                          0x0000251d   Thumb Code    16  usart_v2m-mps2.o(.text.UART0RX_Handler)
    UART0TX_Handler                          0x0000252d   Thumb Code    16  usart_v2m-mps2.o(.text.UART0TX_Handler)
    _sys_close                               0x00002d19   Thumb Code    74  retarget_io.o(.text._sys_close)
    _sys_flen                                0x00002d65   Thumb Code    72  retarget_io.o(.text._sys_flen)
    _sys_istty                               0x00002dad   Thumb Code    72  retarget_io.o(.text._sys_istty)
    _sys_open                                0x00002df5   Thumb Code   132  retarget_io.o(.text._sys_open)
    _sys_seek                                0x00002e79   Thumb Code    82  retarget_io.o(.text._sys_seek)
    _sys_write                               0x00002ecd   Thumb Code   118  retarget_io.o(.text._sys_write)
    main                                     0x00002f45   Thumb Code    66  task2.o(.text.main)
    vTaskStart                               0x00002f89   Thumb Code    30  task2.o(.text.vTaskStart)
    _btod_d2e                                0x00002fa7   Thumb Code    62  btod.o(CL$$btod_d2e)
    _d2e_denorm_low                          0x00002fe5   Thumb Code    70  btod.o(CL$$btod_d2e_denorm_low)
    _d2e_norm_op1                            0x0000302b   Thumb Code    96  btod.o(CL$$btod_d2e_norm_op1)
    __btod_div_common                        0x0000308d   Thumb Code   696  btod.o(CL$$btod_div_common)
    _e2e                                     0x000033c5   Thumb Code   220  btod.o(CL$$btod_e2e)
    _btod_ediv                               0x000034a1   Thumb Code    42  btod.o(CL$$btod_ediv)
    _btod_emul                               0x000034cb   Thumb Code    42  btod.o(CL$$btod_emul)
    __btod_mult_common                       0x000034f5   Thumb Code   580  btod.o(CL$$btod_mult_common)
    __ARM_fpclassify                         0x00003739   Thumb Code    48  fpclassify.o(i.__ARM_fpclassify)
    _is_digit                                0x00003769   Thumb Code    14  __printf_wp.o(i._is_digit)
    fputc                                    0x00003777   Thumb Code    28  fputc.o(i.fputc)
    _get_lc_numeric                          0x00003795   Thumb Code    44  lc_numeric_c.o(locale$$code)
    _get_lc_ctype                            0x000037c1   Thumb Code    44  lc_ctype_c.o(locale$$code)
    xTaskCreateRestricted                    0x00003977   Thumb Code    86  tasks.o(privileged_functions)
    xTaskCreate                              0x000039cd   Thumb Code    94  tasks.o(privileged_functions)
    vTaskDelete                              0x00003a2b   Thumb Code   158  tasks.o(privileged_functions)
    xTaskIncrementTick                       0x00003ac9   Thumb Code   200  tasks.o(privileged_functions)
    xTaskResumeAll                           0x00003b91   Thumb Code   204  tasks.o(privileged_functions)
    vTaskSuspendAll                          0x00003ccb   Thumb Code    10  tasks.o(privileged_functions)
    vTaskDelayUntil                          0x00003cd5   Thumb Code   136  tasks.o(privileged_functions)
    vTaskDelay                               0x00003d5d   Thumb Code    66  tasks.o(privileged_functions)
    eTaskGetState                            0x00003d9f   Thumb Code    96  tasks.o(privileged_functions)
    uxTaskPriorityGet                        0x00003dff   Thumb Code    24  tasks.o(privileged_functions)
    uxTaskPriorityGetFromISR                 0x00003e17   Thumb Code    40  tasks.o(privileged_functions)
    vTaskPrioritySet                         0x00003e3f   Thumb Code   188  tasks.o(privileged_functions)
    vTaskSwitchContext                       0x00003efb   Thumb Code    84  tasks.o(privileged_functions)
    vTaskSuspend                             0x00003f4f   Thumb Code   178  tasks.o(privileged_functions)
    vTaskResume                              0x0000403b   Thumb Code   118  tasks.o(privileged_functions)
    xTaskResumeFromISR                       0x000040b1   Thumb Code   132  tasks.o(privileged_functions)
    vTaskStartScheduler                      0x00004135   Thumb Code   106  tasks.o(privileged_functions)
    vTaskEndScheduler                        0x0000419f   Thumb Code    24  tasks.o(privileged_functions)
    xTaskGetTickCount                        0x000041b7   Thumb Code     6  tasks.o(privileged_functions)
    xTaskGetTickCountFromISR                 0x000041bd   Thumb Code    12  tasks.o(privileged_functions)
    uxTaskGetNumberOfTasks                   0x000041c9   Thumb Code     6  tasks.o(privileged_functions)
    pcTaskGetName                            0x000041cf   Thumb Code    28  tasks.o(privileged_functions)
    xTaskGetHandle                           0x00004243   Thumb Code   124  tasks.o(privileged_functions)
    vTaskGetInfo                             0x000042bf   Thumb Code   108  tasks.o(privileged_functions)
    uxTaskGetSystemState                     0x0000437f   Thumb Code   182  tasks.o(privileged_functions)
    xTaskGetIdleTaskHandle                   0x00004435   Thumb Code    26  tasks.o(privileged_functions)
    xTaskAbortDelay                          0x0000444f   Thumb Code   132  tasks.o(privileged_functions)
    vTaskSetApplicationTaskTag               0x000044d3   Thumb Code    28  tasks.o(privileged_functions)
    xTaskGetApplicationTaskTag               0x000044ef   Thumb Code    26  tasks.o(privileged_functions)
    xTaskCallApplicationTaskHook             0x00004509   Thumb Code    18  tasks.o(privileged_functions)
    vTaskPlaceOnEventList                    0x0000451b   Thumb Code    44  tasks.o(privileged_functions)
    vTaskPlaceOnUnorderedEventList           0x00004547   Thumb Code    72  tasks.o(privileged_functions)
    vTaskPlaceOnEventListRestricted          0x0000458f   Thumb Code    52  tasks.o(privileged_functions)
    xTaskRemoveFromEventList                 0x000045c3   Thumb Code   112  tasks.o(privileged_functions)
    vTaskRemoveFromUnorderedEventList        0x00004633   Thumb Code   112  tasks.o(privileged_functions)
    vTaskSetTimeOutState                     0x000046a3   Thumb Code    44  tasks.o(privileged_functions)
    vTaskInternalSetTimeOutState             0x000046cf   Thumb Code    12  tasks.o(privileged_functions)
    xTaskCheckForTimeOut                     0x000046db   Thumb Code   130  tasks.o(privileged_functions)
    vTaskMissedYield                         0x0000475d   Thumb Code     8  tasks.o(privileged_functions)
    uxTaskGetTaskNumber                      0x00004765   Thumb Code     8  tasks.o(privileged_functions)
    vTaskSetTaskNumber                       0x0000476d   Thumb Code     8  tasks.o(privileged_functions)
    vTaskAllocateMPURegions                  0x00004775   Thumb Code    16  tasks.o(privileged_functions)
    uxTaskGetStackHighWaterMark              0x00004785   Thumb Code    12  tasks.o(privileged_functions)
    xTaskGetCurrentTaskHandle                0x00004791   Thumb Code     6  tasks.o(privileged_functions)
    xTaskGetSchedulerState                   0x00004797   Thumb Code    22  tasks.o(privileged_functions)
    xTaskPriorityInherit                     0x000047ad   Thumb Code   154  tasks.o(privileged_functions)
    xTaskPriorityDisinherit                  0x00004847   Thumb Code   150  tasks.o(privileged_functions)
    vTaskPriorityDisinheritAfterTimeout      0x000048dd   Thumb Code   168  tasks.o(privileged_functions)
    uxTaskResetEventItemValue                0x00004985   Thumb Code    20  tasks.o(privileged_functions)
    pvTaskIncrementMutexHeldCount            0x00004999   Thumb Code    18  tasks.o(privileged_functions)
    ulTaskNotifyTake                         0x000049ab   Thumb Code    96  tasks.o(privileged_functions)
    xTaskNotifyWait                          0x00004a0b   Thumb Code   128  tasks.o(privileged_functions)
    xTaskGenericNotify                       0x00004a8b   Thumb Code   194  tasks.o(privileged_functions)
    xTaskGenericNotifyFromISR                0x00004b4d   Thumb Code   244  tasks.o(privileged_functions)
    vTaskNotifyGiveFromISR                   0x00004c41   Thumb Code   178  tasks.o(privileged_functions)
    xTimerGenericCommand                     0x00004d41   Thumb Code    88  timers.o(privileged_functions)
    xTimerCreateTimerTask                    0x00004eaf   Thumb Code    56  timers.o(privileged_functions)
    xTimerCreate                             0x00004ee7   Thumb Code    78  timers.o(privileged_functions)
    xTimerGetTimerDaemonTaskHandle           0x00004f35   Thumb Code    26  timers.o(privileged_functions)
    xTimerGetPeriod                          0x00004f4f   Thumb Code    22  timers.o(privileged_functions)
    xTimerGetExpiryTime                      0x00004f65   Thumb Code    22  timers.o(privileged_functions)
    pcTimerGetName                           0x00004f7b   Thumb Code    22  timers.o(privileged_functions)
    xTimerIsTimerActive                      0x00004f91   Thumb Code    44  timers.o(privileged_functions)
    pvTimerGetTimerID                        0x00004fbd   Thumb Code    36  timers.o(privileged_functions)
    vTimerSetTimerID                         0x00004fe1   Thumb Code    38  timers.o(privileged_functions)
    uxTimerGetTimerNumber                    0x00005007   Thumb Code     4  timers.o(privileged_functions)
    vTimerSetTimerNumber                     0x0000500b   Thumb Code     4  timers.o(privileged_functions)
    pvPortMalloc                             0x00005169   Thumb Code   210  heap_4.o(privileged_functions)
    vPortFree                                0x0000523b   Thumb Code    88  heap_4.o(privileged_functions)
    xPortGetFreeHeapSize                     0x00005293   Thumb Code     6  heap_4.o(privileged_functions)
    xPortGetMinimumEverFreeHeapSize          0x00005299   Thumb Code     6  heap_4.o(privileged_functions)
    vPortInitialiseBlocks                    0x0000529f   Thumb Code     2  heap_4.o(privileged_functions)
    SVC_Handler                              0x000052a5   Thumb Code    18  port.o(privileged_functions)
    __asm___6_port_c_39a90d8d__prvRestoreContextOfFirstTask 0x000052b7   Thumb Code    54  port.o(privileged_functions)
    __asm___6_port_c_39a90d8d__prvStartFirstTask 0x000052f9   Thumb Code    36  port.o(privileged_functions)
    PendSV_Handler                           0x00005321   Thumb Code   104  port.o(privileged_functions)
    pxPortInitialiseStack                    0x00005391   Thumb Code    50  port.o(privileged_functions)
    prvSVCHandler                            0x000053c3   Thumb Code    64  port.o(privileged_functions)
    xPortStartScheduler                      0x00005403   Thumb Code   172  port.o(privileged_functions)
    vPortEndScheduler                        0x000054af   Thumb Code    28  port.o(privileged_functions)
    SysTick_Handler                          0x000054cb   Thumb Code    42  port.o(privileged_functions)
    vPortStoreTaskMPUSettings                0x000054f5   Thumb Code   202  port.o(privileged_functions)
    xQueueGenericReset                       0x000056ad   Thumb Code   132  queue.o(privileged_functions)
    xQueueGenericCreate                      0x00005731   Thumb Code    86  queue.o(privileged_functions)
    xQueueGenericSend                        0x000058d5   Thumb Code   368  queue.o(privileged_functions)
    xQueueCreateMutex                        0x00005a45   Thumb Code    36  queue.o(privileged_functions)
    xQueueGetMutexHolder                     0x00005a69   Thumb Code    26  queue.o(privileged_functions)
    xQueueGetMutexHolderFromISR              0x00005a83   Thumb Code    30  queue.o(privileged_functions)
    xQueueGiveMutexRecursive                 0x00005aa1   Thumb Code    62  queue.o(privileged_functions)
    xQueueSemaphoreTake                      0x00005adf   Thumb Code   378  queue.o(privileged_functions)
    xQueueTakeMutexRecursive                 0x00005c59   Thumb Code    64  queue.o(privileged_functions)
    xQueueCreateCountingSemaphore            0x00005c99   Thumb Code    58  queue.o(privileged_functions)
    xQueueGenericSendFromISR                 0x00005cd3   Thumb Code   202  queue.o(privileged_functions)
    xQueueGiveFromISR                        0x00005d9d   Thumb Code   172  queue.o(privileged_functions)
    xQueueReceive                            0x00005e6f   Thumb Code   306  queue.o(privileged_functions)
    xQueuePeek                               0x00005fa1   Thumb Code   304  queue.o(privileged_functions)
    xQueueReceiveFromISR                     0x000060d1   Thumb Code   152  queue.o(privileged_functions)
    xQueuePeekFromISR                        0x00006169   Thumb Code   114  queue.o(privileged_functions)
    uxQueueMessagesWaiting                   0x000061db   Thumb Code    36  queue.o(privileged_functions)
    uxQueueSpacesAvailable                   0x000061ff   Thumb Code    40  queue.o(privileged_functions)
    uxQueueMessagesWaitingFromISR            0x00006227   Thumb Code    22  queue.o(privileged_functions)
    vQueueUnregisterQueue                    0x0000623d   Thumb Code    36  queue.o(privileged_functions)
    vQueueDelete                             0x00006261   Thumb Code    36  queue.o(privileged_functions)
    uxQueueGetQueueNumber                    0x00006285   Thumb Code     4  queue.o(privileged_functions)
    vQueueSetQueueNumber                     0x00006289   Thumb Code     4  queue.o(privileged_functions)
    ucQueueGetQueueType                      0x0000628d   Thumb Code     6  queue.o(privileged_functions)
    xQueueIsQueueEmptyFromISR                0x00006293   Thumb Code    30  queue.o(privileged_functions)
    xQueueIsQueueFullFromISR                 0x000062b1   Thumb Code    34  queue.o(privileged_functions)
    vQueueAddToRegistry                      0x000062d3   Thumb Code    32  queue.o(privileged_functions)
    pcQueueGetName                           0x000062f3   Thumb Code    34  queue.o(privileged_functions)
    vQueueWaitForMessageRestricted           0x00006315   Thumb Code    68  queue.o(privileged_functions)
    xQueueCreateSet                          0x00006359   Thumb Code     8  queue.o(privileged_functions)
    xQueueAddToSet                           0x00006361   Thumb Code    34  queue.o(privileged_functions)
    xQueueRemoveFromSet                      0x00006383   Thumb Code    34  queue.o(privileged_functions)
    xQueueSelectFromSet                      0x000063a5   Thumb Code    18  queue.o(privileged_functions)
    xQueueSelectFromSetFromISR               0x000063b7   Thumb Code    18  queue.o(privileged_functions)
    _fp_init                                 0x000063ed   Thumb Code    26  fpinit.o(x$fpl$fpinit)
    __fplib_config_fpu_vfp                   0x00006405   Thumb Code     0  fpinit.o(x$fpl$fpinit)
    __fplib_config_pureend_doubles           0x00006405   Thumb Code     0  fpinit.o(x$fpl$fpinit)
    _printf_fp_dec                           0x00006407   Thumb Code     4  printf1.o(x$fpl$printf1)
    _printf_fp_hex                           0x0000640b   Thumb Code     4  printf2.o(x$fpl$printf2)
    __I$use$fp                               0x0000640e   Number         0  usenofp.o(x$fpl$usenofp)
    Driver_USART0                            0x0000650c   Data          56  usart_v2m-mps2.o(.rodata.Driver_USART0)
    __stderr_name                            0x00006560   Data           8  retarget_io.o(.rodata.__stderr_name)
    __stdin_name                             0x00006568   Data           7  retarget_io.o(.rodata.__stdin_name)
    __stdout_name                            0x0000656f   Data           8  retarget_io.o(.rodata.__stdout_name)
    Region$$Table$$Base                      0x000065ac   Number         0  anon$$obj.o(Region$$Table)
    Region$$Table$$Limit                     0x000065cc   Number         0  anon$$obj.o(Region$$Table)
    __ctype                                  0x000065f5   Data           0  lc_ctype_c.o(locale$$data)
    __FLASH_segment_start__                  0x20000000   Data           4  task2a.o(.data)
    __FLASH_segment_end__                    0x20000004   Data           4  task2a.o(.data)
    __SRAM_segment_start__                   0x20000008   Data           4  task2a.o(.data)
    __SRAM_segment_end__                     0x2000000c   Data           4  task2a.o(.data)
    __privileged_functions_end__             0x20000010   Data           4  task2a.o(.data)
    __privileged_data_start__                0x20000014   Data           4  task2a.o(.data)
    __privileged_data_end__                  0x20000018   Data           4  task2a.o(.data)
    val                                      0x2000001c   Data           4  tasks.o(.data)
    val_a                                    0x20000044   Data           4  port.o(.data)
    val_b                                    0x20000048   Data           4  port.o(.data)
    __aeabi_stdin                            0x2000004c   Data           4  stdio_streams.o(.data)
    __aeabi_stdout                           0x20000050   Data           4  stdio_streams.o(.data)
    __aeabi_stderr                           0x20000054   Data           4  stdio_streams.o(.data)
    SystemCoreClock                          0x20000058   Data           4  system_cmsdk_cm4.o(.data.SystemCoreClock)
    pxCurrentTCB                             0x2000006c   Data           4  tasks.o(privileged_data)
    xQueueRegistry                           0x200001ac   Data          40  queue.o(privileged_data)
    __stdin                                  0x200011d4   Data          84  stdio_streams.o(.bss)
    __stdout                                 0x20001228   Data          84  stdio_streams.o(.bss)
    __stderr                                 0x2000127c   Data          84  stdio_streams.o(.bss)
    __libspace_start                         0x200012d0   Data          96  libspace.o(.bss)
    __temporary_stack_top$libspace           0x20001330   Data           0  libspace.o(.bss)
    Image$$ARM_LIB_HEAP$$ZI$$Base            0x20001350   Number         0  anon$$obj.o ABSOLUTE
    Image$$ARM_LIB_HEAP$$ZI$$Limit           0x20001f50   Number         0  anon$$obj.o ABSOLUTE
    Image$$ARM_LIB_STACK$$ZI$$Limit          0x20040000   Number         0  anon$$obj.o ABSOLUTE



==============================================================================

Memory Map of the image

  Image Entry point : 0x00000401

  Load Region LR_ROM (Base: 0x00000000, Size: 0x000068cc, Max: 0x00080000, ABSOLUTE, COMPRESSED[0x00006724])

    Execution Region ER_ROM (Exec base: 0x00000000, Load base: 0x00000000, Size: 0x000066f8, Max: 0x00080000, ABSOLUTE)

    Exec Addr    Load Addr    Size         Type   Attr      Idx    E Section Name        Object

    0x00000000   0x00000000   0x00000400   Data   RO          140    RESET               startup_cmsdk_cm4.o
    0x00000400   0x00000400   0x00000008   Code   RO          602  * !!!main             c_w.l(__main.o)
    0x00000408   0x00000408   0x00000034   Code   RO         1104    !!!scatter          c_w.l(__scatter.o)
    0x0000043c   0x0000043c   0x0000003a   Code   RO         1102    !!dczerorl          c_w.l(__dczerorl.o)
    0x00000476   0x00000476   0x00000002   PAD
    0x00000478   0x00000478   0x0000001c   Code   RO         1106    !!handler_zi        c_w.l(__scatter_zi.o)
    0x00000494   0x00000494   0x00000000   Code   RO          593    .ARM.Collect$$_printf_percent$$00000000  c_w.l(_printf_percent.o)
    0x00000494   0x00000494   0x00000006   Code   RO          651    .ARM.Collect$$_printf_percent$$00000001  c_w.l(_printf_n.o)
    0x0000049a   0x0000049a   0x00000006   Code   RO          653    .ARM.Collect$$_printf_percent$$00000002  c_w.l(_printf_p.o)
    0x000004a0   0x000004a0   0x00000006   Code   RO          657    .ARM.Collect$$_printf_percent$$00000003  c_w.l(_printf_f.o)
    0x000004a6   0x000004a6   0x00000006   Code   RO          658    .ARM.Collect$$_printf_percent$$00000004  c_w.l(_printf_e.o)
    0x000004ac   0x000004ac   0x00000006   Code   RO          659    .ARM.Collect$$_printf_percent$$00000005  c_w.l(_printf_g.o)
    0x000004b2   0x000004b2   0x00000006   Code   RO          660    .ARM.Collect$$_printf_percent$$00000006  c_w.l(_printf_a.o)
    0x000004b8   0x000004b8   0x0000000a   Code   RO          665    .ARM.Collect$$_printf_percent$$00000007  c_w.l(_printf_ll.o)
    0x000004c2   0x000004c2   0x00000006   Code   RO          655    .ARM.Collect$$_printf_percent$$00000008  c_w.l(_printf_i.o)
    0x000004c8   0x000004c8   0x00000006   Code   RO          656    .ARM.Collect$$_printf_percent$$00000009  c_w.l(_printf_d.o)
    0x000004ce   0x000004ce   0x00000006   Code   RO          592    .ARM.Collect$$_printf_percent$$0000000A  c_w.l(_printf_u.o)
    0x000004d4   0x000004d4   0x00000006   Code   RO          654    .ARM.Collect$$_printf_percent$$0000000B  c_w.l(_printf_o.o)
    0x000004da   0x000004da   0x00000006   Code   RO          652    .ARM.Collect$$_printf_percent$$0000000C  c_w.l(_printf_x.o)
    0x000004e0   0x000004e0   0x00000006   Code   RO          662    .ARM.Collect$$_printf_percent$$0000000D  c_w.l(_printf_lli.o)
    0x000004e6   0x000004e6   0x00000006   Code   RO          663    .ARM.Collect$$_printf_percent$$0000000E  c_w.l(_printf_lld.o)
    0x000004ec   0x000004ec   0x00000006   Code   RO          664    .ARM.Collect$$_printf_percent$$0000000F  c_w.l(_printf_llu.o)
    0x000004f2   0x000004f2   0x00000006   Code   RO          669    .ARM.Collect$$_printf_percent$$00000010  c_w.l(_printf_llo.o)
    0x000004f8   0x000004f8   0x00000006   Code   RO          670    .ARM.Collect$$_printf_percent$$00000011  c_w.l(_printf_llx.o)
    0x000004fe   0x000004fe   0x0000000a   Code   RO          666    .ARM.Collect$$_printf_percent$$00000012  c_w.l(_printf_l.o)
    0x00000508   0x00000508   0x00000006   Code   RO          649    .ARM.Collect$$_printf_percent$$00000013  c_w.l(_printf_c.o)
    0x0000050e   0x0000050e   0x00000006   Code   RO          650    .ARM.Collect$$_printf_percent$$00000014  c_w.l(_printf_s.o)
    0x00000514   0x00000514   0x00000006   Code   RO          667    .ARM.Collect$$_printf_percent$$00000015  c_w.l(_printf_lc.o)
    0x0000051a   0x0000051a   0x00000006   Code   RO          668    .ARM.Collect$$_printf_percent$$00000016  c_w.l(_printf_ls.o)
    0x00000520   0x00000520   0x00000004   Code   RO          661    .ARM.Collect$$_printf_percent$$00000017  c_w.l(_printf_percent_end.o)
    0x00000524   0x00000524   0x00000002   Code   RO          867    .ARM.Collect$$libinit$$00000000  c_w.l(libinit.o)
    0x00000526   0x00000526   0x00000004   Code   RO          868    .ARM.Collect$$libinit$$00000001  c_w.l(libinit2.o)
    0x0000052a   0x0000052a   0x00000000   Code   RO          871    .ARM.Collect$$libinit$$00000004  c_w.l(libinit2.o)
    0x0000052a   0x0000052a   0x00000000   Code   RO          873    .ARM.Collect$$libinit$$00000006  c_w.l(libinit2.o)
    0x0000052a   0x0000052a   0x00000008   Code   RO          997    .ARM.Collect$$libinit$$0000000A  c_w.l(libinit5.o)
    0x00000532   0x00000532   0x00000000   Code   RO          876    .ARM.Collect$$libinit$$0000000C  c_w.l(libinit2.o)
    0x00000532   0x00000532   0x00000000   Code   RO          878    .ARM.Collect$$libinit$$0000000E  c_w.l(libinit2.o)
    0x00000532   0x00000532   0x00000000   Code   RO          880    .ARM.Collect$$libinit$$00000010  c_w.l(libinit2.o)
    0x00000532   0x00000532   0x00000006   Code   RO          881    .ARM.Collect$$libinit$$00000011  c_w.l(libinit2.o)
    0x00000538   0x00000538   0x00000000   Code   RO          883    .ARM.Collect$$libinit$$00000013  c_w.l(libinit2.o)
    0x00000538   0x00000538   0x0000000c   Code   RO          884    .ARM.Collect$$libinit$$00000014  c_w.l(libinit2.o)
    0x00000544   0x00000544   0x00000000   Code   RO          885    .ARM.Collect$$libinit$$00000015  c_w.l(libinit2.o)
    0x00000544   0x00000544   0x00000000   Code   RO          887    .ARM.Collect$$libinit$$00000017  c_w.l(libinit2.o)
    0x00000544   0x00000544   0x0000000a   Code   RO          888    .ARM.Collect$$libinit$$00000018  c_w.l(libinit2.o)
    0x0000054e   0x0000054e   0x00000000   Code   RO          889    .ARM.Collect$$libinit$$00000019  c_w.l(libinit2.o)
    0x0000054e   0x0000054e   0x00000000   Code   RO          891    .ARM.Collect$$libinit$$0000001B  c_w.l(libinit2.o)
    0x0000054e   0x0000054e   0x00000000   Code   RO          893    .ARM.Collect$$libinit$$0000001D  c_w.l(libinit2.o)
    0x0000054e   0x0000054e   0x00000000   Code   RO          895    .ARM.Collect$$libinit$$0000001F  c_w.l(libinit2.o)
    0x0000054e   0x0000054e   0x00000000   Code   RO          897    .ARM.Collect$$libinit$$00000021  c_w.l(libinit2.o)
    0x0000054e   0x0000054e   0x00000000   Code   RO          899    .ARM.Collect$$libinit$$00000023  c_w.l(libinit2.o)
    0x0000054e   0x0000054e   0x00000000   Code   RO          901    .ARM.Collect$$libinit$$00000025  c_w.l(libinit2.o)
    0x0000054e   0x0000054e   0x00000004   Code   RO          902    .ARM.Collect$$libinit$$00000026  c_w.l(libinit2.o)
    0x00000552   0x00000552   0x00000000   Code   RO          903    .ARM.Collect$$libinit$$00000027  c_w.l(libinit2.o)
    0x00000552   0x00000552   0x00000000   Code   RO          907    .ARM.Collect$$libinit$$0000002E  c_w.l(libinit2.o)
    0x00000552   0x00000552   0x00000000   Code   RO          909    .ARM.Collect$$libinit$$00000030  c_w.l(libinit2.o)
    0x00000552   0x00000552   0x00000000   Code   RO          911    .ARM.Collect$$libinit$$00000032  c_w.l(libinit2.o)
    0x00000552   0x00000552   0x00000000   Code   RO          913    .ARM.Collect$$libinit$$00000034  c_w.l(libinit2.o)
    0x00000552   0x00000552   0x00000002   Code   RO          914    .ARM.Collect$$libinit$$00000035  c_w.l(libinit2.o)
    0x00000554   0x00000554   0x00000008   Code   RO          998    .ARM.Collect$$libinit$$0000271B  c_w.l(libinit5.o)
    0x0000055c   0x0000055c   0x00000002   Code   RO         1081    .ARM.Collect$$libshutdown$$00000000  c_w.l(libshutdown.o)
    0x0000055e   0x0000055e   0x00000000   Code   RO          916    .ARM.Collect$$libshutdown$$00000002  c_w.l(libshutdown2.o)
    0x0000055e   0x0000055e   0x00000004   Code   RO          917    .ARM.Collect$$libshutdown$$00000003  c_w.l(libshutdown2.o)
    0x00000562   0x00000562   0x00000000   Code   RO          918    .ARM.Collect$$libshutdown$$00000004  c_w.l(libshutdown2.o)
    0x00000562   0x00000562   0x00000000   Code   RO          921    .ARM.Collect$$libshutdown$$00000007  c_w.l(libshutdown2.o)
    0x00000562   0x00000562   0x00000000   Code   RO          924    .ARM.Collect$$libshutdown$$0000000A  c_w.l(libshutdown2.o)
    0x00000562   0x00000562   0x00000000   Code   RO          926    .ARM.Collect$$libshutdown$$0000000C  c_w.l(libshutdown2.o)
    0x00000562   0x00000562   0x00000000   Code   RO          929    .ARM.Collect$$libshutdown$$0000000F  c_w.l(libshutdown2.o)
    0x00000562   0x00000562   0x00000002   Code   RO          930    .ARM.Collect$$libshutdown$$00000010  c_w.l(libshutdown2.o)
    0x00000564   0x00000564   0x00000000   Code   RO          604    .ARM.Collect$$rtentry$$00000000  c_w.l(__rtentry.o)
    0x00000564   0x00000564   0x00000000   Code   RO          690    .ARM.Collect$$rtentry$$00000002  c_w.l(__rtentry2.o)
    0x00000564   0x00000564   0x00000004   Code   RO          704    .ARM.Collect$$rtentry$$00000007  c_w.l(__rtentry7.o)
    0x00000568   0x00000568   0x00000000   Code   RO          692    .ARM.Collect$$rtentry$$00000009  c_w.l(__rtentry2.o)
    0x00000568   0x00000568   0x00000004   Code   RO          693    .ARM.Collect$$rtentry$$0000000A  c_w.l(__rtentry2.o)
    0x0000056c   0x0000056c   0x00000000   Code   RO          695    .ARM.Collect$$rtentry$$0000000C  c_w.l(__rtentry2.o)
    0x0000056c   0x0000056c   0x00000008   Code   RO          696    .ARM.Collect$$rtentry$$0000000D  c_w.l(__rtentry2.o)
    0x00000574   0x00000574   0x00000004   Code   RO          705    .ARM.Collect$$rtentry$$00002718  c_w.l(__rtentry7.o)
    0x00000578   0x00000578   0x00000002   Code   RO          945    .ARM.Collect$$rtexit$$00000000  c_w.l(rtexit.o)
    0x0000057a   0x0000057a   0x00000000   Code   RO         1011    .ARM.Collect$$rtexit$$00000002  c_w.l(rtexit2.o)
    0x0000057a   0x0000057a   0x00000004   Code   RO         1012    .ARM.Collect$$rtexit$$00000003  c_w.l(rtexit2.o)
    0x0000057e   0x0000057e   0x00000006   Code   RO         1013    .ARM.Collect$$rtexit$$00000004  c_w.l(rtexit2.o)
    0x00000584   0x00000584   0x0000003c   Code   RO          474    .emb_text           task2b_23.lib(port.o)
    0x000005c0   0x000005c0   0x00000058   Code   RO          159    .text               task2b_23.lib(stdout_usart.o)
    0x00000618   0x00000618   0x00000054   Code   RO          192    .text               task2b_23.lib(task2a.o)
    0x0000066c   0x0000066c   0x00000088   Code   RO          306    .text               task2b_23.lib(tasks.o)
    0x000006f4   0x000006f4   0x0000008a   Code   RO          371    .text               task2b_23.lib(list.o)
    0x0000077e   0x0000077e   0x00000002   PAD
    0x00000780   0x00000780   0x00000094   Code   RO          441    .text               task2b_23.lib(heap_4.o)
    0x00000814   0x00000814   0x000000bc   Code   RO          475    .text               task2b_23.lib(port.o)
    0x000008d0   0x000008d0   0x00000018   Code   RO          562    .text               c_w.l(printf.o)
    0x000008e8   0x000008e8   0x00000018   Code   RO          564    .text               c_w.l(__2printf.o)
    0x00000900   0x00000900   0x00000078   Code   RO          570    .text               c_w.l(_printf_dec.o)
    0x00000978   0x00000978   0x00000188   Code   RO          589    .text               c_w.l(__printf_flags_ss_wp.o)
    0x00000b00   0x00000b00   0x0000003e   Code   RO          594    .text               c_w.l(strlen.o)
    0x00000b3e   0x00000b3e   0x0000008a   Code   RO          596    .text               c_w.l(rt_memcpy_v6.o)
    0x00000bc8   0x00000bc8   0x00000010   Code   RO          598    .text               c_w.l(aeabi_memset.o)
    0x00000bd8   0x00000bd8   0x0000007c   Code   RO          600    .text               c_w.l(strcmpv7em.o)
    0x00000c54   0x00000c54   0x0000004e   Code   RO          605    .text               c_w.l(_printf_pad.o)
    0x00000ca2   0x00000ca2   0x00000024   Code   RO          607    .text               c_w.l(_printf_truncate.o)
    0x00000cc6   0x00000cc6   0x00000052   Code   RO          609    .text               c_w.l(_printf_str.o)
    0x00000d18   0x00000d18   0x000000b2   Code   RO          611    .text               c_w.l(_printf_intcommon.o)
    0x00000dca   0x00000dca   0x00000028   Code   RO          613    .text               c_w.l(_printf_charcount.o)
    0x00000df2   0x00000df2   0x00000002   PAD
    0x00000df4   0x00000df4   0x00000024   Code   RO          615    .text               c_w.l(_printf_char_file.o)
    0x00000e18   0x00000e18   0x000000bc   Code   RO          617    .text               c_w.l(_printf_wctomb.o)
    0x00000ed4   0x00000ed4   0x0000007c   Code   RO          620    .text               c_w.l(_printf_longlong_dec.o)
    0x00000f50   0x00000f50   0x00000070   Code   RO          626    .text               c_w.l(_printf_oct_int_ll.o)
    0x00000fc0   0x00000fc0   0x00000094   Code   RO          646    .text               c_w.l(_printf_hex_int_ll_ptr.o)
    0x00001054   0x00001054   0x00000064   Code   RO          677    .text               c_w.l(rt_memcpy_w.o)
    0x000010b8   0x000010b8   0x00000044   Code   RO          679    .text               c_w.l(rt_memclr.o)
    0x000010fc   0x000010fc   0x0000008a   Code   RO          709    .text               c_w.l(lludiv10.o)
    0x00001186   0x00001186   0x0000041c   Code   RO          711    .text               c_w.l(_printf_fp_dec.o)
    0x000015a2   0x000015a2   0x00000002   PAD
    0x000015a4   0x000015a4   0x000002fc   Code   RO          715    .text               c_w.l(_printf_fp_hex.o)
    0x000018a0   0x000018a0   0x00000030   Code   RO          718    .text               c_w.l(_printf_char_common.o)
    0x000018d0   0x000018d0   0x0000002c   Code   RO          720    .text               c_w.l(_printf_char.o)
    0x000018fc   0x000018fc   0x0000002c   Code   RO          722    .text               c_w.l(_printf_wchar.o)
    0x00001928   0x00001928   0x00000008   Code   RO          724    .text               c_w.l(ferror.o)
    0x00001930   0x00001930   0x00000138   Code   RO          730    .text               c_w.l(initio.o)
    0x00001a68   0x00001a68   0x00000048   Code   RO          738    .text               c_w.l(_c16rtomb.o)
    0x00001ab0   0x00001ab0   0x0000004e   Code   RO          740    .text               c_w.l(rt_memclr_w.o)
    0x00001afe   0x00001afe   0x00000002   PAD
    0x00001b00   0x00001b00   0x00000010   Code   RO          746    .text               c_w.l(rt_ctype_table.o)
    0x00001b10   0x00001b10   0x00000008   Code   RO          751    .text               c_w.l(rt_locale_intlibspace.o)
    0x00001b18   0x00001b18   0x0000004e   Code   RO          755    .text               c_w.l(h1_free.o)
    0x00001b66   0x00001b66   0x00000002   PAD
    0x00001b68   0x00001b68   0x00000080   Code   RO          809    .text               c_w.l(_printf_fp_infnan.o)
    0x00001be8   0x00001be8   0x000000e4   Code   RO          813    .text               c_w.l(bigflt0.o)
    0x00001ccc   0x00001ccc   0x000001e2   Code   RO          840    .text               c_w.l(flsbuf.o)
    0x00001eae   0x00001eae   0x00000046   Code   RO          842    .text               c_w.l(setvbuf.o)
    0x00001ef4   0x00001ef4   0x000000f0   Code   RO          845    .text               c_w.l(fopen.o)
    0x00001fe4   0x00001fe4   0x0000004c   Code   RO          847    .text               c_w.l(fclose.o)
    0x00002030   0x00002030   0x00000012   Code   RO          856    .text               c_w.l(exit.o)
    0x00002042   0x00002042   0x0000000e   Code   RO          858    .text               c_w.l(defsig_rtred_outer.o)
    0x00002050   0x00002050   0x00000008   Code   RO          952    .text               c_w.l(rt_heap_descriptor_intlibspace.o)
    0x00002058   0x00002058   0x00000004   Code   RO          954    .text               c_w.l(hguard.o)
    0x0000205c   0x0000205c   0x0000008a   Code   RO          956    .text               c_w.l(init_alloc.o)
    0x000020e6   0x000020e6   0x0000005e   Code   RO          962    .text               c_w.l(h1_alloc.o)
    0x00002144   0x00002144   0x000000f8   Code   RO          978    .text               c_w.l(fseek.o)
    0x0000223c   0x0000223c   0x000000f0   Code   RO          980    .text               c_w.l(stdio.o)
    0x0000232c   0x0000232c   0x0000000a   Code   RO          989    .text               c_w.l(defsig_exit.o)
    0x00002336   0x00002336   0x00000002   PAD
    0x00002338   0x00002338   0x00000034   Code   RO          991    .text               c_w.l(defsig_rtred_inner.o)
    0x0000236c   0x0000236c   0x0000000c   Code   RO         1003    .text               c_w.l(sys_exit.o)
    0x00002378   0x00002378   0x00000002   Code   RO         1007    .text               c_w.l(use_no_semi.o)
    0x0000237a   0x0000237a   0x00000000   Code   RO         1009    .text               c_w.l(indicate_semi.o)
    0x0000237a   0x0000237a   0x00000000   Code   RO         1017    .text               c_w.l(maybetermalloc1.o)
    0x0000237a   0x0000237a   0x0000000e   Code   RO         1019    .text               c_w.l(h1_init.o)
    0x00002388   0x00002388   0x00000034   Code   RO         1021    .text               c_w.l(h1_extend.o)
    0x000023bc   0x000023bc   0x00000042   Code   RO         1033    .text               c_w.l(ftell.o)
    0x000023fe   0x000023fe   0x00000032   Code   RO         1041    .text               c_w.l(defsig_general.o)
    0x00002430   0x00002430   0x0000000e   Code   RO         1043    .text               c_w.l(defsig_rtmem_outer.o)
    0x0000243e   0x0000243e   0x0000000e   Code   RO         1058    .text               c_w.l(sys_wrch.o)
    0x0000244c   0x0000244c   0x00000008   Code   RO         1069    .text               c_w.l(rt_errno_addr_intlibspace.o)
    0x00002454   0x00002454   0x00000050   Code   RO         1075    .text               c_w.l(defsig_rtmem_inner.o)
    0x000024a4   0x000024a4   0x0000002e   Code   RO           14    .text.ARM_MPU_Disable  task2.o
    0x000024d2   0x000024d2   0x00000002   PAD
    0x000024d4   0x000024d4   0x00000004   Code   RO          134    .text.Default_Handler  startup_cmsdk_cm4.o
    0x000024d8   0x000024d8   0x00000004   Code   RO          138    .text.HardFault_Handler  startup_cmsdk_cm4.o
    0x000024dc   0x000024dc   0x00000008   Code   RO          136    .text.Reset_Handler  startup_cmsdk_cm4.o
    0x000024e4   0x000024e4   0x00000036   Code   RO          150    .text.SystemInit    system_cmsdk_cm4.o
    0x0000251a   0x0000251a   0x00000002   PAD
    0x0000251c   0x0000251c   0x00000010   Code   RO           27    .text.UART0RX_Handler  usart_v2m-mps2.o
    0x0000252c   0x0000252c   0x00000010   Code   RO           31    .text.UART0TX_Handler  usart_v2m-mps2.o
    0x0000253c   0x0000253c   0x0000001c   Code   RO           55    .text.USART0_Control  usart_v2m-mps2.o
    0x00002558   0x00002558   0x00000018   Code   RO           37    .text.USART0_GetCapabilities  usart_v2m-mps2.o
    0x00002570   0x00002570   0x00000018   Code   RO           61    .text.USART0_GetModemStatus  usart_v2m-mps2.o
    0x00002588   0x00002588   0x00000010   Code   RO           53    .text.USART0_GetRxCount  usart_v2m-mps2.o
    0x00002598   0x00002598   0x00000018   Code   RO           57    .text.USART0_GetStatus  usart_v2m-mps2.o
    0x000025b0   0x000025b0   0x00000010   Code   RO           51    .text.USART0_GetTxCount  usart_v2m-mps2.o
    0x000025c0   0x000025c0   0x00000018   Code   RO           39    .text.USART0_Initialize  usart_v2m-mps2.o
    0x000025d8   0x000025d8   0x0000001c   Code   RO           43    .text.USART0_PowerControl  usart_v2m-mps2.o
    0x000025f4   0x000025f4   0x0000001c   Code   RO           47    .text.USART0_Receive  usart_v2m-mps2.o
    0x00002610   0x00002610   0x0000001c   Code   RO           45    .text.USART0_Send   usart_v2m-mps2.o
    0x0000262c   0x0000262c   0x0000001c   Code   RO           59    .text.USART0_SetModemControl  usart_v2m-mps2.o
    0x00002648   0x00002648   0x00000020   Code   RO           49    .text.USART0_Transfer  usart_v2m-mps2.o
    0x00002668   0x00002668   0x00000010   Code   RO           41    .text.USART0_Uninitialize  usart_v2m-mps2.o
    0x00002678   0x00002678   0x00000082   Code   RO           29    .text.USARTRX_IRQHandler  usart_v2m-mps2.o
    0x000026fa   0x000026fa   0x00000002   PAD
    0x000026fc   0x000026fc   0x00000080   Code   RO           33    .text.USARTTX_IRQHandler  usart_v2m-mps2.o
    0x0000277c   0x0000277c   0x0000019e   Code   RO           87    .text.USART_Control  usart_v2m-mps2.o
    0x0000291a   0x0000291a   0x00000002   PAD
    0x0000291c   0x0000291c   0x00000010   Code   RO           63    .text.USART_GetCapabilities  usart_v2m-mps2.o
    0x0000292c   0x0000292c   0x0000000e   Code   RO           93    .text.USART_GetModemStatus  usart_v2m-mps2.o
    0x0000293a   0x0000293a   0x00000002   PAD
    0x0000293c   0x0000293c   0x0000000e   Code   RO           85    .text.USART_GetRxCount  usart_v2m-mps2.o
    0x0000294a   0x0000294a   0x00000002   PAD
    0x0000294c   0x0000294c   0x00000044   Code   RO           89    .text.USART_GetStatus  usart_v2m-mps2.o
    0x00002990   0x00002990   0x0000000e   Code   RO           83    .text.USART_GetTxCount  usart_v2m-mps2.o
    0x0000299e   0x0000299e   0x00000002   PAD
    0x000029a0   0x000029a0   0x0000006c   Code   RO           65    .text.USART_Initialize  usart_v2m-mps2.o
    0x00002a0c   0x00002a0c   0x000000de   Code   RO           69    .text.USART_PowerControl  usart_v2m-mps2.o
    0x00002aea   0x00002aea   0x00000002   PAD
    0x00002aec   0x00002aec   0x0000008e   Code   RO           79    .text.USART_Receive  usart_v2m-mps2.o
    0x00002b7a   0x00002b7a   0x00000002   PAD
    0x00002b7c   0x00002b7c   0x00000094   Code   RO           77    .text.USART_Send    usart_v2m-mps2.o
    0x00002c10   0x00002c10   0x00000010   Code   RO           91    .text.USART_SetModemControl  usart_v2m-mps2.o
    0x00002c20   0x00002c20   0x00000012   Code   RO           81    .text.USART_Transfer  usart_v2m-mps2.o
    0x00002c32   0x00002c32   0x00000002   PAD
    0x00002c34   0x00002c34   0x00000036   Code   RO           67    .text.USART_Uninitialize  usart_v2m-mps2.o
    0x00002c6a   0x00002c6a   0x00000002   PAD
    0x00002c6c   0x00002c6c   0x00000014   Code   RO           35    .text.USARTx_GetVersion  usart_v2m-mps2.o
    0x00002c80   0x00002c80   0x00000030   Code   RO           73    .text.__NVIC_ClearPendingIRQ  usart_v2m-mps2.o
    0x00002cb0   0x00002cb0   0x00000038   Code   RO           71    .text.__NVIC_DisableIRQ  usart_v2m-mps2.o
    0x00002ce8   0x00002ce8   0x00000030   Code   RO           75    .text.__NVIC_EnableIRQ  usart_v2m-mps2.o
    0x00002d18   0x00002d18   0x0000004a   Code   RO          111    .text._sys_close    retarget_io.o
    0x00002d62   0x00002d62   0x00000002   PAD
    0x00002d64   0x00002d64   0x00000048   Code   RO          121    .text._sys_flen     retarget_io.o
    0x00002dac   0x00002dac   0x00000048   Code   RO          117    .text._sys_istty    retarget_io.o
    0x00002df4   0x00002df4   0x00000084   Code   RO          109    .text._sys_open     retarget_io.o
    0x00002e78   0x00002e78   0x00000052   Code   RO          119    .text._sys_seek     retarget_io.o
    0x00002eca   0x00002eca   0x00000002   PAD
    0x00002ecc   0x00002ecc   0x00000076   Code   RO          113    .text._sys_write    retarget_io.o
    0x00002f42   0x00002f42   0x00000002   PAD
    0x00002f44   0x00002f44   0x00000042   Code   RO           16    .text.main          task2.o
    0x00002f86   0x00002f86   0x00000002   PAD
    0x00002f88   0x00002f88   0x0000001e   Code   RO           12    .text.vTaskStart    task2.o
    0x00002fa6   0x00002fa6   0x0000003e   Code   RO          816    CL$$btod_d2e        c_w.l(btod.o)
    0x00002fe4   0x00002fe4   0x00000046   Code   RO          818    CL$$btod_d2e_denorm_low  c_w.l(btod.o)
    0x0000302a   0x0000302a   0x00000060   Code   RO          817    CL$$btod_d2e_norm_op1  c_w.l(btod.o)
    0x0000308a   0x0000308a   0x00000002   PAD
    0x0000308c   0x0000308c   0x00000338   Code   RO          826    CL$$btod_div_common  c_w.l(btod.o)
    0x000033c4   0x000033c4   0x000000dc   Code   RO          823    CL$$btod_e2e        c_w.l(btod.o)
    0x000034a0   0x000034a0   0x0000002a   Code   RO          820    CL$$btod_ediv       c_w.l(btod.o)
    0x000034ca   0x000034ca   0x0000002a   Code   RO          819    CL$$btod_emul       c_w.l(btod.o)
    0x000034f4   0x000034f4   0x00000244   Code   RO          825    CL$$btod_mult_common  c_w.l(btod.o)
    0x00003738   0x00003738   0x00000030   Code   RO          936    i.__ARM_fpclassify  m_wm.l(fpclassify.o)
    0x00003768   0x00003768   0x0000000e   Code   RO          582    i._is_digit         c_w.l(__printf_wp.o)
    0x00003776   0x00003776   0x0000001c   Code   RO          727    i.fputc             c_w.l(fputc.o)
    0x00003792   0x00003792   0x00000002   PAD
    0x00003794   0x00003794   0x0000002c   Code   RO          854    locale$$code        c_w.l(lc_numeric_c.o)
    0x000037c0   0x000037c0   0x0000002c   Code   RO          987    locale$$code        c_w.l(lc_ctype_c.o)
    0x000037ec   0x000037ec   0x00001520   Code   RO          307    privileged_functions  task2b_23.lib(tasks.o)
    0x00004d0c   0x00004d0c   0x0000045c   Code   RO          402    privileged_functions  task2b_23.lib(timers.o)
    0x00005168   0x00005168   0x0000013c   Code   RO          442    privileged_functions  task2b_23.lib(heap_4.o)
    0x000052a4   0x000052a4   0x000000ec   Code   RO          473    privileged_functions  task2b_23.lib(port.o)
    0x00005390   0x00005390   0x0000031c   Code   RO          476    privileged_functions  task2b_23.lib(port.o)
    0x000056ac   0x000056ac   0x00000d40   Code   RO          531    privileged_functions  task2b_23.lib(queue.o)
    0x000063ec   0x000063ec   0x0000001a   Code   RO         1001    x$fpl$fpinit        fz_wm.l(fpinit.o)
    0x00006406   0x00006406   0x00000004   Code   RO          681    x$fpl$printf1       fz_wm.l(printf1.o)
    0x0000640a   0x0000640a   0x00000004   Code   RO          683    x$fpl$printf2       fz_wm.l(printf2.o)
    0x0000640e   0x0000640e   0x00000000   Code   RO          935    x$fpl$usenofp       fz_wm.l(usenofp.o)
    0x0000640e   0x0000640e   0x00000011   Data   RO          590    .constdata          c_w.l(__printf_flags_ss_wp.o)
    0x0000641f   0x0000641f   0x00000001   PAD
    0x00006420   0x00006420   0x00000008   Data   RO          618    .constdata          c_w.l(_printf_wctomb.o)
    0x00006428   0x00006428   0x00000028   Data   RO          647    .constdata          c_w.l(_printf_hex_int_ll_ptr.o)
    0x00006450   0x00006450   0x00000026   Data   RO          716    .constdata          c_w.l(_printf_fp_hex.o)
    0x00006476   0x00006476   0x00000002   PAD
    0x00006478   0x00006478   0x00000094   Data   RO          814    .constdata          c_w.l(bigflt0.o)
    0x0000650c   0x0000650c   0x00000038   Data   RO           95    .rodata.Driver_USART0  usart_v2m-mps2.o
    0x00006544   0x00006544   0x0000001c   Data   RO          100    .rodata.USART0_Resources  usart_v2m-mps2.o
    0x00006560   0x00006560   0x00000008   Data   RO          125    .rodata.__stderr_name  retarget_io.o
    0x00006568   0x00006568   0x00000007   Data   RO          123    .rodata.__stdin_name  retarget_io.o
    0x0000656f   0x0000656f   0x00000008   Data   RO          124    .rodata.__stdout_name  retarget_io.o
    0x00006577   0x00006577   0x00000019   Data   RO           18    .rodata.str1.1      task2.o
    0x00006590   0x00006590   0x00000017   Data   RO          126    .rodata.str1.1      retarget_io.o
    0x000065a7   0x000065a7   0x00000001   PAD
    0x000065a8   0x000065a8   0x00000004   Data   RO          101    .rodata.usart_driver_version  usart_v2m-mps2.o
    0x000065ac   0x000065ac   0x00000020   Data   RO         1101    Region$$Table       anon$$obj.o
    0x000065cc   0x000065cc   0x0000001c   Data   RO          853    locale$$data        c_w.l(lc_numeric_c.o)
    0x000065e8   0x000065e8   0x00000110   Data   RO          986    locale$$data        c_w.l(lc_ctype_c.o)


    Execution Region RW_RAM (Exec base: 0x20000000, Load base: 0x000066f8, Size: 0x00001350, Max: 0x0003f200, ABSOLUTE, COMPRESSED[0x0000002c])

    Exec Addr    Load Addr    Size         Type   Attr      Idx    E Section Name        Object

    0x20000000   COMPRESSED   0x00000004   Data   RW          193    .data               task2b_23.lib(task2a.o)
    0x20000004   COMPRESSED   0x00000004   Data   RW          194    .data               task2b_23.lib(task2a.o)
    0x20000008   COMPRESSED   0x00000004   Data   RW          195    .data               task2b_23.lib(task2a.o)
    0x2000000c   COMPRESSED   0x00000004   Data   RW          196    .data               task2b_23.lib(task2a.o)
    0x20000010   COMPRESSED   0x00000004   Data   RW          198    .data               task2b_23.lib(task2a.o)
    0x20000014   COMPRESSED   0x00000004   Data   RW          199    .data               task2b_23.lib(task2a.o)
    0x20000018   COMPRESSED   0x00000004   Data   RW          200    .data               task2b_23.lib(task2a.o)
    0x2000001c   COMPRESSED   0x00000004   Data   RW          308    .data               task2b_23.lib(tasks.o)
    0x20000020   COMPRESSED   0x00000018   Data   RW          444    .data               task2b_23.lib(heap_4.o)
    0x20000038   COMPRESSED   0x00000014   Data   RW          477    .data               task2b_23.lib(port.o)
    0x2000004c   COMPRESSED   0x00000004   Data   RW          674    .data               c_w.l(stdio_streams.o)
    0x20000050   COMPRESSED   0x00000004   Data   RW          675    .data               c_w.l(stdio_streams.o)
    0x20000054   COMPRESSED   0x00000004   Data   RW          676    .data               c_w.l(stdio_streams.o)
    0x20000058   COMPRESSED   0x00000004   Data   RW          152    .data.SystemCoreClock  system_cmsdk_cm4.o
    0x2000005c   COMPRESSED   0x00000008   Data   RW           96    .data.USART0_pin_rx  usart_v2m-mps2.o
    0x20000064   COMPRESSED   0x00000008   Data   RW           97    .data.USART0_pin_tx  usart_v2m-mps2.o
    0x2000006c   COMPRESSED   0x00000104   Data   RW          309    privileged_data     task2b_23.lib(tasks.o)
    0x20000170   COMPRESSED   0x0000003c   Data   RW          403    privileged_data     task2b_23.lib(timers.o)
    0x200001ac   COMPRESSED   0x00000028   Data   RW          532    privileged_data     task2b_23.lib(queue.o)
    0x200001d4        -       0x00001000   Zero   RW          443    .bss                task2b_23.lib(heap_4.o)
    0x200011d4        -       0x00000054   Zero   RW          671    .bss                c_w.l(stdio_streams.o)
    0x20001228        -       0x00000054   Zero   RW          672    .bss                c_w.l(stdio_streams.o)
    0x2000127c        -       0x00000054   Zero   RW          673    .bss                c_w.l(stdio_streams.o)
    0x200012d0        -       0x00000060   Zero   RW          939    .bss                c_w.l(libspace.o)
    0x20001330        -       0x00000008   Zero   RW           98    .bss.USART0_Info    usart_v2m-mps2.o
    0x20001338        -       0x00000018   Zero   RW           99    .bss.USART0_TransferInfo  usart_v2m-mps2.o


    Execution Region ARM_LIB_HEAP (Exec base: 0x20001350, Load base: 0x00006724, Size: 0x00000c00, Max: 0x00000c00, ABSOLUTE)

    Exec Addr    Load Addr    Size         Type   Attr      Idx    E Section Name        Object

    0x20001350        -       0x00000c00   Zero   RW            1    ARM_LIB_HEAP.bss    anon$$obj.o


    Execution Region ARM_LIB_STACK (Exec base: 0x2003fe00, Load base: 0x00006724, Size: 0x00000200, Max: 0x00000200, ABSOLUTE)

    Exec Addr    Load Addr    Size         Type   Attr      Idx    E Section Name        Object

    0x2003fe00        -       0x00000200   Zero   RW            2    ARM_LIB_STACK.bss   anon$$obj.o


==============================================================================

Image component sizes


      Code (inc. data)   RO Data    RW Data    ZI Data      Debug   Object Name

       550          0         46          0          0       2347   retarget_io.o
        16          0       1024          0          0        903   startup_cmsdk_cm4.o
        54          0          0          4          0       1407   system_cmsdk_cm4.o
       142          0         25          0          0       2336   task2.o
      2026          6         88         16         32      12025   usart_v2m-mps2.o

    ----------------------------------------------------------------------
      2818          6       1216         20       3616      19018   Object Totals
         0          0         32          0       3584          0   (incl. Generated)
        30          0          1          0          0          0   (incl. Padding)

    ----------------------------------------------------------------------

      Code (inc. data)   RO Data    RW Data    ZI Data      Debug   Library Member Name

        24          4          0          0          0         84   __2printf.o
        58          0          0          0          0          0   __dczerorl.o
         8          0          0          0          0         68   __main.o
       392          4         17          0          0         92   __printf_flags_ss_wp.o
        14          0          0          0          0         68   __printf_wp.o
         0          0          0          0          0          0   __rtentry.o
        12          0          0          0          0          0   __rtentry2.o
         8          4          0          0          0          0   __rtentry7.o
        52          8          0          0          0          0   __scatter.o
        28          0          0          0          0          0   __scatter_zi.o
        72          0          0          0          0         96   _c16rtomb.o
         6          0          0          0          0          0   _printf_a.o
         6          0          0          0          0          0   _printf_c.o
        44          0          0          0          0        108   _printf_char.o
        48          6          0          0          0         96   _printf_char_common.o
        36          4          0          0          0         80   _printf_char_file.o
        40          0          0          0          0         68   _printf_charcount.o
         6          0          0          0          0          0   _printf_d.o
       120         16          0          0          0         92   _printf_dec.o
         6          0          0          0          0          0   _printf_e.o
         6          0          0          0          0          0   _printf_f.o
      1052          0          0          0          0        148   _printf_fp_dec.o
       764          8         38          0          0        100   _printf_fp_hex.o
       128         16          0          0          0         84   _printf_fp_infnan.o
         6          0          0          0          0          0   _printf_g.o
       148          4         40          0          0        160   _printf_hex_int_ll_ptr.o
         6          0          0          0          0          0   _printf_i.o
       178          0          0          0          0         88   _printf_intcommon.o
        10          0          0          0          0          0   _printf_l.o
         6          0          0          0          0          0   _printf_lc.o
        10          0          0          0          0          0   _printf_ll.o
         6          0          0          0          0          0   _printf_lld.o
         6          0          0          0          0          0   _printf_lli.o
         6          0          0          0          0          0   _printf_llo.o
         6          0          0          0          0          0   _printf_llu.o
         6          0          0          0          0          0   _printf_llx.o
       124         16          0          0          0         92   _printf_longlong_dec.o
         6          0          0          0          0          0   _printf_ls.o
         6          0          0          0          0          0   _printf_n.o
         6          0          0          0          0          0   _printf_o.o
       112          8          0          0          0        124   _printf_oct_int_ll.o
         6          0          0          0          0          0   _printf_p.o
        78          0          0          0          0        108   _printf_pad.o
         0          0          0          0          0          0   _printf_percent.o
         4          0          0          0          0          0   _printf_percent_end.o
         6          0          0          0          0          0   _printf_s.o
        82          0          0          0          0         80   _printf_str.o
        36          0          0          0          0         84   _printf_truncate.o
         6          0          0          0          0          0   _printf_u.o
        44          0          0          0          0        108   _printf_wchar.o
       188          6          8          0          0         92   _printf_wctomb.o
         6          0          0          0          0          0   _printf_x.o
        16          0          0          0          0         68   aeabi_memset.o
       228          4        148          0          0         96   bigflt0.o
      1936        128          0          0          0        668   btod.o
        10          0          0          0          0         68   defsig_exit.o
        50          0          0          0          0         88   defsig_general.o
        80         58          0          0          0         76   defsig_rtmem_inner.o
        14          0          0          0          0         80   defsig_rtmem_outer.o
        52         38          0          0          0         76   defsig_rtred_inner.o
        14          0          0          0          0         80   defsig_rtred_outer.o
        18          0          0          0          0         80   exit.o
        76          0          0          0          0         88   fclose.o
         8          0          0          0          0         68   ferror.o
       482          0          0          0          0         92   flsbuf.o
       240          6          0          0          0        128   fopen.o
        28          0          0          0          0         68   fputc.o
       248          6          0          0          0         84   fseek.o
        66          0          0          0          0         76   ftell.o
        94          0          0          0          0         80   h1_alloc.o
        52          0          0          0          0         68   h1_extend.o
        78          0          0          0          0         80   h1_free.o
        14          0          0          0          0         84   h1_init.o
         4          0          0          0          0        136   hguard.o
         0          0          0          0          0          0   indicate_semi.o
       138          0          0          0          0        168   init_alloc.o
       312         46          0          0          0        112   initio.o
        44         10        272          0          0         76   lc_ctype_c.o
        44         10         28          0          0         76   lc_numeric_c.o
         2          0          0          0          0          0   libinit.o
        38          0          0          0          0          0   libinit2.o
        16          8          0          0          0          0   libinit5.o
         2          0          0          0          0          0   libshutdown.o
         6          0          0          0          0          0   libshutdown2.o
         0          0          0          0         96          0   libspace.o
       138          0          0          0          0         80   lludiv10.o
         0          0          0          0          0          0   maybetermalloc1.o
        24          4          0          0          0         84   printf.o
        16          4          0          0          0         76   rt_ctype_table.o
         8          4          0          0          0         68   rt_errno_addr_intlibspace.o
         8          4          0          0          0         68   rt_heap_descriptor_intlibspace.o
         8          4          0          0          0         68   rt_locale_intlibspace.o
        68          0          0          0          0         68   rt_memclr.o
        78          0          0          0          0         80   rt_memclr_w.o
       138          0          0          0          0         68   rt_memcpy_v6.o
       100          0          0          0          0         80   rt_memcpy_w.o
         2          0          0          0          0          0   rtexit.o
        10          0          0          0          0          0   rtexit2.o
        70          0          0          0          0         80   setvbuf.o
       240          6          0          0          0        156   stdio.o
         0          0          0         12        252          0   stdio_streams.o
       124          0          0          0          0         88   strcmpv7em.o
        62          0          0          0          0         76   strlen.o
        12          4          0          0          0         68   sys_exit.o
        14          0          0          0          0         76   sys_wrch.o
         2          0          0          0          0         68   use_no_semi.o
        26          0          0          0          0        116   fpinit.o
         4          0          0          0          0        116   printf1.o
         4          0          0          0          0        116   printf2.o
         0          0          0          0          0          0   usenofp.o
        48          0          0          0          0        124   fpclassify.o
       464         14          0         24       4096       4360   heap_4.o
       138          0          0          0          0       2002   list.o
      1280        114          0         20          0      16541   port.o
      3392         16          0         40          0      22217   queue.o
        88          6          0          0          0       5353   stdout_usart.o
        84         28          0         28          0      16352   task2a.o
      5544         80          0        264          0      42854   tasks.o
      1116         44          0         60          0      18870   timers.o

    ----------------------------------------------------------------------
     21772        750        554        448       4444     135357   Library Totals
        18          0          3          0          0          0   (incl. Padding)

    ----------------------------------------------------------------------

      Code (inc. data)   RO Data    RW Data    ZI Data      Debug   Library Name

      9566        448        551         12        348       6336   c_w.l
        34          0          0          0          0        348   fz_wm.l
        48          0          0          0          0        124   m_wm.l
     12106        302          0        436       4096     128549   task2b_23.lib

    ----------------------------------------------------------------------
     21772        750        554        448       4444     135357   Library Totals

    ----------------------------------------------------------------------

==============================================================================


      Code (inc. data)   RO Data    RW Data    ZI Data      Debug   

     24590        756       1770        468       8060     148359   Grand Totals
     24590        756       1770         44       8060     148359   ELF Image Totals (compressed)
     24590        756       1770         44          0          0   ROM Totals

==============================================================================

    Total RO  Size (Code + RO Data)                26360 (  25.74kB)
    Total RW  Size (RW Data + ZI Data)              8528 (   8.33kB)
    Total ROM Size (Code + RO Data + RW Data)      26404 (  25.79kB)

==============================================================================

